---
triple:          'arm64-apple-darwin'
binary-path:     '/Users/ivo/Coding/C++/AdventOfCode23/day19'
relocations:
  - { offsetInCU: 0xE81D, offset: 0xE81D, size: 0x8, addend: 0x0, symName: __ZNSt3__17advanceB7v160006IP9OperationllvEEvRT_T0_, symObjAddr: 0x41F4, symBinAddr: 0x100008108, symSize: 0x50 }
  - { offsetInCU: 0xEA9D, offset: 0xEA9D, size: 0x8, addend: 0x0, symName: __ZNSt3__17advanceB7v160006INS_16reverse_iteratorIP9OperationEEllvEEvRT_T0_, symObjAddr: 0x4664, symBinAddr: 0x100008578, symSize: 0x50 }
  - { offsetInCU: 0x10450, offset: 0x10450, size: 0x8, addend: 0x0, symName: __ZNSt3__124__put_character_sequenceB7v160006IcNS_11char_traitsIcEEEERNS_13basic_ostreamIT_T0_EES7_PKS4_m, symObjAddr: 0x6988, symBinAddr: 0x10000A89C, symSize: 0x1EC }
  - { offsetInCU: 0x14E1C, offset: 0x14E1C, size: 0x8, addend: 0x0, symName: __ZNSt3__1neB7v160006IP9OperationEEbRKNS_11__wrap_iterIT_EES7_, symObjAddr: 0x23C, symBinAddr: 0x100004150, symSize: 0x34 }
  - { offsetInCU: 0x1604D, offset: 0x1604D, size: 0x8, addend: 0x0, symName: __ZNSt3__17getlineB7v160006IcNS_11char_traitsIcEENS_9allocatorIcEEEERNS_13basic_istreamIT_T0_EES9_RNS_12basic_stringIS6_S7_T1_EE, symObjAddr: 0x1498, symBinAddr: 0x1000053AC, symSize: 0x5C }
  - { offsetInCU: 0x160A5, offset: 0x160A5, size: 0x8, addend: 0x0, symName: __ZNSt3__1lsB7v160006IcNS_11char_traitsIcEENS_9allocatorIcEEEERNS_13basic_ostreamIT_T0_EES9_RKNS_12basic_stringIS6_S7_T1_EE, symObjAddr: 0x1550, symBinAddr: 0x100005464, symSize: 0x4C }
  - { offsetInCU: 0x160FD, offset: 0x160FD, size: 0x8, addend: 0x0, symName: __ZNSt3__17getlineB7v160006IcNS_11char_traitsIcEENS_9allocatorIcEEEERNS_13basic_istreamIT_T0_EES9_RNS_12basic_stringIS6_S7_T1_EES6_, symObjAddr: 0x159C, symBinAddr: 0x1000054B0, symSize: 0x238 }
  - { offsetInCU: 0x161BB, offset: 0x161BB, size: 0x8, addend: 0x0, symName: __ZNSt3__1rsB7v160006IcNS_11char_traitsIcEEEERNS_13basic_istreamIT_T0_EES7_RS4_, symObjAddr: 0x180C, symBinAddr: 0x100005720, symSize: 0x18C }
  - { offsetInCU: 0x16327, offset: 0x16327, size: 0x8, addend: 0x0, symName: __ZNSt3__19make_pairB7v160006IRNS_12basic_stringIcNS_11char_traitsIcEENS_9allocatorIcEEEER8WorkflowEENS_4pairINS_18__unwrap_ref_decayIT_E4typeENSB_IT0_E4typeEEEOSC_OSF_, symObjAddr: 0x1AD4, symBinAddr: 0x1000059E8, symSize: 0x40 }
  - { offsetInCU: 0x16376, offset: 0x16376, size: 0x8, addend: 0x0, symName: __ZNSt3__1neB7v160006ERKNS_14__map_iteratorINS_15__tree_iteratorINS_12__value_typeINS_12basic_stringIcNS_11char_traitsIcEENS_9allocatorIcEEEE8WorkflowEEPNS_11__tree_nodeISA_PvEElEEEESI_, symObjAddr: 0x1C48, symBinAddr: 0x100005B5C, symSize: 0x30 }
  - { offsetInCU: 0x163B3, offset: 0x163B3, size: 0x8, addend: 0x0, symName: __ZNSt3__13getB7v160006ILm0EKNS_12basic_stringIcNS_11char_traitsIcEENS_9allocatorIcEEEE8WorkflowEERKNS_13tuple_elementIXT_ENS_4pairIT0_T1_EEE4typeERKSD_, symObjAddr: 0x1CA0, symBinAddr: 0x100005BB4, symSize: 0x24 }
  - { offsetInCU: 0x163FD, offset: 0x163FD, size: 0x8, addend: 0x0, symName: __ZNSt3__13getB7v160006ILm1EKNS_12basic_stringIcNS_11char_traitsIcEENS_9allocatorIcEEEE8WorkflowEERKNS_13tuple_elementIXT_ENS_4pairIT0_T1_EEE4typeERKSD_, symObjAddr: 0x1CC4, symBinAddr: 0x100005BD8, symSize: 0x24 }
  - { offsetInCU: 0x16447, offset: 0x16447, size: 0x8, addend: 0x0, symName: __ZNSt3__1lsB7v160006INS_11char_traitsIcEEEERNS_13basic_ostreamIcT_EES6_PKc, symObjAddr: 0x1CE8, symBinAddr: 0x100005BFC, symSize: 0x48 }
  - { offsetInCU: 0x1648D, offset: 0x1648D, size: 0x8, addend: 0x0, symName: __ZNSt3__14endlB7v160006IcNS_11char_traitsIcEEEERNS_13basic_ostreamIT_T0_EES7_, symObjAddr: 0x1D5C, symBinAddr: 0x100005C70, symSize: 0x58 }
  - { offsetInCU: 0x164CD, offset: 0x164CD, size: 0x8, addend: 0x0, symName: __ZNSt3__1neB7v160006IP4PartEEbRKNS_11__wrap_iterIT_EES7_, symObjAddr: 0x1F20, symBinAddr: 0x100005E34, symSize: 0x34 }
  - { offsetInCU: 0x16510, offset: 0x16510, size: 0x8, addend: 0x0, symName: __ZNSt3__1eqB7v160006IcNS_11char_traitsIcEENS_9allocatorIcEEEEbRKNS_12basic_stringIT_T0_T1_EEPKS6_, symObjAddr: 0x2040, symBinAddr: 0x100005F54, symSize: 0x5C }
  - { offsetInCU: 0x16573, offset: 0x16573, size: 0x8, addend: 0x0, symName: __ZNSt3__1eqB7v160006IP9OperationEEbRKNS_11__wrap_iterIT_EES7_, symObjAddr: 0x224C, symBinAddr: 0x100006160, symSize: 0x48 }
  - { offsetInCU: 0x165B6, offset: 0x165B6, size: 0x8, addend: 0x0, symName: __ZNSt3__119__debug_db_insert_cB7v160006INS_12basic_stringIcNS_11char_traitsIcEENS_9allocatorIcEEEEEEvPT_, symObjAddr: 0x23C8, symBinAddr: 0x1000062DC, symSize: 0x10 }
  - { offsetInCU: 0x165E7, offset: 0x165E7, size: 0x8, addend: 0x0, symName: __ZNSt3__119__debug_db_insert_cB7v160006INS_6vectorI4PartNS_9allocatorIS2_EEEEEEvPT_, symObjAddr: 0x25A0, symBinAddr: 0x1000064B4, symSize: 0x10 }
  - { offsetInCU: 0x16618, offset: 0x16618, size: 0x8, addend: 0x0, symName: __ZNSt3__119__debug_db_insert_cB7v160006INS_6vectorI9OperationNS_9allocatorIS2_EEEEEEvPT_, symObjAddr: 0x2890, symBinAddr: 0x1000067A4, symSize: 0x10 }
  - { offsetInCU: 0x16649, offset: 0x16649, size: 0x8, addend: 0x0, symName: __ZNSt3__112__to_addressB7v160006IcEEPT_S2_, symObjAddr: 0x2A04, symBinAddr: 0x100006918, symSize: 0x14 }
  - { offsetInCU: 0x1667E, offset: 0x1667E, size: 0x8, addend: 0x0, symName: __ZNSt3__112__to_addressB7v160006I9OperationEEPT_S3_, symObjAddr: 0x2E68, symBinAddr: 0x100006D7C, symSize: 0x14 }
  - { offsetInCU: 0x166D8, offset: 0x166D8, size: 0x8, addend: 0x0, symName: __ZNSt3__112construct_atB7v160006I9OperationJRKS1_EPS1_EEPT_S6_DpOT0_, symObjAddr: 0x2EF4, symBinAddr: 0x100006E08, symSize: 0x3C }
  - { offsetInCU: 0x16748, offset: 0x16748, size: 0x8, addend: 0x0, symName: __ZNSt3__13maxB7v160006ImEERKT_S3_S3_, symObjAddr: 0x32A8, symBinAddr: 0x1000071BC, symSize: 0x2C }
  - { offsetInCU: 0x1678B, offset: 0x1678B, size: 0x8, addend: 0x0, symName: __ZNSt3__13minB7v160006ImEERKT_S3_S3_, symObjAddr: 0x32D4, symBinAddr: 0x1000071E8, symSize: 0x2C }
  - { offsetInCU: 0x169B8, offset: 0x169B8, size: 0x8, addend: 0x0, symName: __ZNSt3__13minB7v160006ImNS_6__lessImmEEEERKT_S5_S5_T0_, symObjAddr: 0x3364, symBinAddr: 0x100007278, symSize: 0x54 }
  - { offsetInCU: 0x16C39, offset: 0x16C39, size: 0x8, addend: 0x0, symName: __ZNSt3__120__throw_length_errorB7v160006EPKc, symObjAddr: 0x3448, symBinAddr: 0x10000735C, symSize: 0x64 }
  - { offsetInCU: 0x16C61, offset: 0x16C61, size: 0x8, addend: 0x0, symName: __ZNSt3__13maxB7v160006ImNS_6__lessImmEEEERKT_S5_S5_T0_, symObjAddr: 0x358C, symBinAddr: 0x1000074A0, symSize: 0x54 }
  - { offsetInCU: 0x16CBB, offset: 0x16CBB, size: 0x8, addend: 0x0, symName: __ZNSt3__119__allocate_at_leastB7v160006INS_9allocatorI9OperationEEEENS_19__allocation_resultINS_16allocator_traitsIT_E7pointerEEERS6_m, symObjAddr: 0x36FC, symBinAddr: 0x100007610, symSize: 0x40 }
  - { offsetInCU: 0x16CFE, offset: 0x16CFE, size: 0x8, addend: 0x0, symName: __ZNSt3__117__libcpp_allocateB7v160006Emm, symObjAddr: 0x3884, symBinAddr: 0x100007798, symSize: 0x60 }
  - { offsetInCU: 0x16D58, offset: 0x16D58, size: 0x8, addend: 0x0, symName: __ZNSt3__124__is_overaligned_for_newB7v160006Em, symObjAddr: 0x38E4, symBinAddr: 0x1000077F8, symSize: 0x20 }
  - { offsetInCU: 0x16D86, offset: 0x16D86, size: 0x8, addend: 0x0, symName: __ZNSt3__121__libcpp_operator_newB7v160006IJmSt11align_val_tEEEPvDpT_, symObjAddr: 0x3904, symBinAddr: 0x100007818, symSize: 0x2C }
  - { offsetInCU: 0x16DD3, offset: 0x16DD3, size: 0x8, addend: 0x0, symName: __ZNSt3__121__libcpp_operator_newB7v160006IJmEEEPvDpT_, symObjAddr: 0x3930, symBinAddr: 0x100007844, symSize: 0x24 }
  - { offsetInCU: 0x16E0C, offset: 0x16E0C, size: 0x8, addend: 0x0, symName: __ZNSt3__142__uninitialized_allocator_move_if_noexceptB7v160006INS_9allocatorI9OperationEENS_16reverse_iteratorIPS2_EES6_S6_EET2_RT_T0_T1_S7_, symObjAddr: 0x3A8C, symBinAddr: 0x1000079A0, symSize: 0x12C }
  - { offsetInCU: 0x16EAC, offset: 0x16EAC, size: 0x8, addend: 0x0, symName: __ZNSt3__14swapB7v160006IP9OperationEENS_9enable_ifIXaasr21is_move_constructibleIT_EE5valuesr18is_move_assignableIS4_EE5valueEvE4typeERS4_S7_, symObjAddr: 0x3C04, symBinAddr: 0x100007B18, symSize: 0x3C }
  - { offsetInCU: 0x16EFD, offset: 0x16EFD, size: 0x8, addend: 0x0, symName: __ZNSt3__125__debug_db_invalidate_allB7v160006INS_6vectorI9OperationNS_9allocatorIS2_EEEEEEvPT_, symObjAddr: 0x3D08, symBinAddr: 0x100007C1C, symSize: 0x10 }
  - { offsetInCU: 0x16F2E, offset: 0x16F2E, size: 0x8, addend: 0x0, symName: __ZNSt3__122__make_exception_guardB7v160006INS_29_AllocatorDestroyRangeReverseINS_9allocatorI9OperationEENS_16reverse_iteratorIPS3_EEEEEENS_28__exception_guard_exceptionsIT_EESA_, symObjAddr: 0x3D60, symBinAddr: 0x100007C74, symSize: 0x4C }
  - { offsetInCU: 0x16F64, offset: 0x16F64, size: 0x8, addend: 0x0, symName: __ZNSt3__1neB7v160006IP9OperationS2_EEbRKNS_16reverse_iteratorIT_EERKNS3_IT0_EE, symObjAddr: 0x3DF0, symBinAddr: 0x100007D04, symSize: 0x48 }
  - { offsetInCU: 0x16FB0, offset: 0x16FB0, size: 0x8, addend: 0x0, symName: __ZNSt3__112__to_addressB7v160006INS_16reverse_iteratorIP9OperationEEvEENS_5decayIDTclsr19__to_address_helperIT_EE6__callclsr3stdE7declvalIRKS6_EEEEE4typeES8_, symObjAddr: 0x3E68, symBinAddr: 0x100007D7C, symSize: 0x24 }
  - { offsetInCU: 0x16FE6, offset: 0x16FE6, size: 0x8, addend: 0x0, symName: __ZNSt3__112construct_atB7v160006I9OperationJS1_EPS1_EEPT_S4_DpOT0_, symObjAddr: 0x3FB8, symBinAddr: 0x100007ECC, symSize: 0x3C }
  - { offsetInCU: 0x17056, offset: 0x17056, size: 0x8, addend: 0x0, symName: __ZNSt3__115__debug_db_swapB7v160006INS_12basic_stringIcNS_11char_traitsIcEENS_9allocatorIcEEEEEEvPT_S8_, symObjAddr: 0x412C, symBinAddr: 0x100008040, symSize: 0x14 }
  - { offsetInCU: 0x170BE, offset: 0x170BE, size: 0x8, addend: 0x0, symName: __ZNSt3__14prevB7v160006IP9OperationEENS_9enable_ifIXsr25__is_cpp17_input_iteratorIT_EE5valueES4_E4typeES4_NS_15iterator_traitsIS4_E15difference_typeE, symObjAddr: 0x41A4, symBinAddr: 0x1000080B8, symSize: 0x50 }
  - { offsetInCU: 0x17101, offset: 0x17101, size: 0x8, addend: 0x0, symName: __ZNSt3__121__convert_to_integralB7v160006El, symObjAddr: 0x4244, symBinAddr: 0x100008158, symSize: 0x14 }
  - { offsetInCU: 0x1712D, offset: 0x1712D, size: 0x8, addend: 0x0, symName: __ZNSt3__19__advanceB7v160006IP9OperationEEvRT_NS_15iterator_traitsIS3_E15difference_typeENS_26random_access_iterator_tagE, symObjAddr: 0x4258, symBinAddr: 0x10000816C, symSize: 0x30 }
  - { offsetInCU: 0x17176, offset: 0x17176, size: 0x8, addend: 0x0, symName: __ZNSt3__119__allocator_destroyB7v160006INS_9allocatorI9OperationEENS_16reverse_iteratorINS4_IPS2_EEEES7_EEvRT_T0_T1_, symObjAddr: 0x438C, symBinAddr: 0x1000082A0, symSize: 0x70 }
  - { offsetInCU: 0x171DB, offset: 0x171DB, size: 0x8, addend: 0x0, symName: __ZNSt3__1neB7v160006INS_16reverse_iteratorIP9OperationEES4_EEbRKNS1_IT_EERKNS1_IT0_EE, symObjAddr: 0x4438, symBinAddr: 0x10000834C, symSize: 0x60 }
  - { offsetInCU: 0x17227, offset: 0x17227, size: 0x8, addend: 0x0, symName: __ZNSt3__112__to_addressB7v160006INS_16reverse_iteratorINS1_IP9OperationEEEEvEENS_5decayIDTclsr19__to_address_helperIT_EE6__callclsr3stdE7declvalIRKS7_EEEEE4typeES9_, symObjAddr: 0x44C0, symBinAddr: 0x1000083D4, symSize: 0x24 }
  - { offsetInCU: 0x1725D, offset: 0x1725D, size: 0x8, addend: 0x0, symName: __ZNSt3__110destroy_atB7v160006I9OperationLi0EEEvPT_, symObjAddr: 0x4538, symBinAddr: 0x10000844C, symSize: 0x24 }
  - { offsetInCU: 0x17294, offset: 0x17294, size: 0x8, addend: 0x0, symName: __ZNSt3__112__destroy_atB7v160006I9OperationLi0EEEvPT_, symObjAddr: 0x455C, symBinAddr: 0x100008470, symSize: 0x24 }
  - { offsetInCU: 0x172F4, offset: 0x172F4, size: 0x8, addend: 0x0, symName: __ZNSt3__14prevB7v160006INS_16reverse_iteratorIP9OperationEEEENS_9enable_ifIXsr25__is_cpp17_input_iteratorIT_EE5valueES6_E4typeES6_NS_15iterator_traitsIS6_E15difference_typeE, symObjAddr: 0x4604, symBinAddr: 0x100008518, symSize: 0x60 }
  - { offsetInCU: 0x17337, offset: 0x17337, size: 0x8, addend: 0x0, symName: __ZNSt3__19__advanceB7v160006INS_16reverse_iteratorIP9OperationEEEEvRT_NS_15iterator_traitsIS5_E15difference_typeENS_26random_access_iterator_tagE, symObjAddr: 0x46B4, symBinAddr: 0x1000085C8, symSize: 0x2C }
  - { offsetInCU: 0x17380, offset: 0x17380, size: 0x8, addend: 0x0, symName: __ZNSt3__119__libcpp_deallocateB7v160006EPvmm, symObjAddr: 0x499C, symBinAddr: 0x1000088B0, symSize: 0x60 }
  - { offsetInCU: 0x173E5, offset: 0x173E5, size: 0x8, addend: 0x0, symName: __ZNSt3__127__do_deallocate_handle_sizeB7v160006IJSt11align_val_tEEEvPvmDpT_, symObjAddr: 0x49FC, symBinAddr: 0x100008910, symSize: 0x30 }
  - { offsetInCU: 0x17438, offset: 0x17438, size: 0x8, addend: 0x0, symName: __ZNSt3__127__do_deallocate_handle_sizeB7v160006IJEEEvPvmDpT_, symObjAddr: 0x4A2C, symBinAddr: 0x100008940, symSize: 0x28 }
  - { offsetInCU: 0x17476, offset: 0x17476, size: 0x8, addend: 0x0, symName: __ZNSt3__124__libcpp_operator_deleteB7v160006IJPvSt11align_val_tEEEvDpT_, symObjAddr: 0x4A54, symBinAddr: 0x100008968, symSize: 0x2C }
  - { offsetInCU: 0x174BF, offset: 0x174BF, size: 0x8, addend: 0x0, symName: __ZNSt3__124__libcpp_operator_deleteB7v160006IJPvEEEvDpT_, symObjAddr: 0x4A80, symBinAddr: 0x100008994, symSize: 0x24 }
  - { offsetInCU: 0x174F4, offset: 0x174F4, size: 0x8, addend: 0x0, symName: __ZNSt3__118__debug_db_erase_cB7v160006INS_6vectorI9OperationNS_9allocatorIS2_EEEEEEvPT_, symObjAddr: 0x4E90, symBinAddr: 0x100008DA4, symSize: 0x10 }
  - { offsetInCU: 0x17525, offset: 0x17525, size: 0x8, addend: 0x0, symName: __ZNSt3__112__to_addressB7v160006I4PartEEPT_S3_, symObjAddr: 0x51B0, symBinAddr: 0x1000090C4, symSize: 0x14 }
  - { offsetInCU: 0x1757F, offset: 0x1757F, size: 0x8, addend: 0x0, symName: __ZNSt3__112construct_atB7v160006I4PartJRKS1_EPS1_EEPT_S6_DpOT0_, symObjAddr: 0x523C, symBinAddr: 0x100009150, symSize: 0x34 }
  - { offsetInCU: 0x175EF, offset: 0x175EF, size: 0x8, addend: 0x0, symName: __ZNSt3__119__allocate_at_leastB7v160006INS_9allocatorI4PartEEEENS_19__allocation_resultINS_16allocator_traitsIT_E7pointerEEERS6_m, symObjAddr: 0x57EC, symBinAddr: 0x100009700, symSize: 0x40 }
  - { offsetInCU: 0x17632, offset: 0x17632, size: 0x8, addend: 0x0, symName: __ZNSt3__142__uninitialized_allocator_move_if_noexceptB7v160006INS_9allocatorI4PartEENS_16reverse_iteratorIPS2_EES6_S2_vEET1_RT_T0_SA_S7_, symObjAddr: 0x5A78, symBinAddr: 0x10000998C, symSize: 0x78 }
  - { offsetInCU: 0x176AF, offset: 0x176AF, size: 0x8, addend: 0x0, symName: __ZNSt3__14swapB7v160006IP4PartEENS_9enable_ifIXaasr21is_move_constructibleIT_EE5valuesr18is_move_assignableIS4_EE5valueEvE4typeERS4_S7_, symObjAddr: 0x5B3C, symBinAddr: 0x100009A50, symSize: 0x3C }
  - { offsetInCU: 0x17700, offset: 0x17700, size: 0x8, addend: 0x0, symName: __ZNSt3__125__debug_db_invalidate_allB7v160006INS_6vectorI4PartNS_9allocatorIS2_EEEEEEvPT_, symObjAddr: 0x5C40, symBinAddr: 0x100009B54, symSize: 0x10 }
  - { offsetInCU: 0x17731, offset: 0x17731, size: 0x8, addend: 0x0, symName: __ZNSt3__14moveB7v160006INS_16reverse_iteratorIP4PartEES4_EET0_T_S6_S5_, symObjAddr: 0x5C98, symBinAddr: 0x100009BAC, symSize: 0x78 }
  - { offsetInCU: 0x1778B, offset: 0x1778B, size: 0x8, addend: 0x0, symName: __ZNSt3__16__moveB7v160006INS_17_ClassicAlgPolicyENS_16reverse_iteratorIP4PartEES5_S5_EENS_4pairIT0_T2_EES7_T1_S8_, symObjAddr: 0x5D10, symBinAddr: 0x100009C24, symSize: 0x64 }
  - { offsetInCU: 0x177F7, offset: 0x177F7, size: 0x8, addend: 0x0, symName: __ZNSt3__123__dispatch_copy_or_moveB7v160006INS_17_ClassicAlgPolicyENS_11__move_loopIS1_EENS_14__move_trivialENS_16reverse_iteratorIP4PartEES8_S8_EENS_4pairIT2_T4_EESA_T3_SB_, symObjAddr: 0x5D74, symBinAddr: 0x100009C88, symSize: 0x64 }
  - { offsetInCU: 0x17875, offset: 0x17875, size: 0x8, addend: 0x0, symName: __ZNSt3__121__unwrap_and_dispatchB7v160006INS_10__overloadINS_11__move_loopINS_17_ClassicAlgPolicyEEENS_14__move_trivialEEENS_16reverse_iteratorIP4PartEESA_SA_Li0EEENS_4pairIT0_T2_EESC_T1_SD_, symObjAddr: 0x5DD8, symBinAddr: 0x100009CEC, symSize: 0x12C }
  - { offsetInCU: 0x17905, offset: 0x17905, size: 0x8, addend: 0x0, symName: __ZNSt3__114__unwrap_rangeB7v160006INS_16reverse_iteratorIP4PartEES4_EEDaT_T0_, symObjAddr: 0x5F04, symBinAddr: 0x100009E18, symSize: 0x4C }
  - { offsetInCU: 0x17A80, offset: 0x17A80, size: 0x8, addend: 0x0, symName: __ZNSt3__113__unwrap_iterB7v160006INS_16reverse_iteratorIP4PartEENS_18__unwrap_iter_implIS4_Lb0EEELi0EEEDTclsrT0_8__unwrapclsr3stdE7declvalIT_EEEES8_, symObjAddr: 0x5FF8, symBinAddr: 0x100009F0C, symSize: 0x44 }
  - { offsetInCU: 0x17AC4, offset: 0x17AC4, size: 0x8, addend: 0x0, symName: __ZNSt3__19make_pairB7v160006INS_16reverse_iteratorIP4PartEES4_EENS_4pairINS_18__unwrap_ref_decayIT_E4typeENS6_IT0_E4typeEEEOS7_OSA_, symObjAddr: 0x603C, symBinAddr: 0x100009F50, symSize: 0x38 }
  - { offsetInCU: 0x17B13, offset: 0x17B13, size: 0x8, addend: 0x0, symName: __ZNSt3__114__rewrap_rangeB7v160006INS_16reverse_iteratorIP4PartEES4_S4_EET0_S5_T1_, symObjAddr: 0x6074, symBinAddr: 0x100009F88, symSize: 0x5C }
  - { offsetInCU: 0x17B68, offset: 0x17B68, size: 0x8, addend: 0x0, symName: __ZNSt3__113__rewrap_iterB7v160006INS_16reverse_iteratorIP4PartEES4_NS_18__unwrap_iter_implIS4_Lb0EEEEET_S7_T0_, symObjAddr: 0x60D0, symBinAddr: 0x100009FE4, symSize: 0x74 }
  - { offsetInCU: 0x17C0D, offset: 0x17C0D, size: 0x8, addend: 0x0, symName: __ZNSt3__1neB7v160006IP4PartS2_EEbRKNS_16reverse_iteratorIT_EERKNS3_IT0_EE, symObjAddr: 0x6238, symBinAddr: 0x10000A14C, symSize: 0x48 }
  - { offsetInCU: 0x17D0B, offset: 0x17D0B, size: 0x8, addend: 0x0, symName: __ZNSt3__110destroy_atB7v160006I4PartLi0EEEvPT_, symObjAddr: 0x65C4, symBinAddr: 0x10000A4D8, symSize: 0x24 }
  - { offsetInCU: 0x17D42, offset: 0x17D42, size: 0x8, addend: 0x0, symName: __ZNSt3__112__destroy_atB7v160006I4PartLi0EEEvPT_, symObjAddr: 0x65E8, symBinAddr: 0x10000A4FC, symSize: 0x10 }
  - { offsetInCU: 0x17DF3, offset: 0x17DF3, size: 0x8, addend: 0x0, symName: __ZNSt3__1neB7v160006IPK9OperationEEbRKNS_11__wrap_iterIT_EES8_, symObjAddr: 0x6714, symBinAddr: 0x10000A628, symSize: 0x34 }
  - { offsetInCU: 0x17E36, offset: 0x17E36, size: 0x8, addend: 0x0, symName: __ZNSt3__1eqB7v160006IPK9OperationEEbRKNS_11__wrap_iterIT_EES8_, symObjAddr: 0x68F4, symBinAddr: 0x10000A808, symSize: 0x48 }
  - { offsetInCU: 0x17E79, offset: 0x17E79, size: 0x8, addend: 0x0, symName: __ZNSt3__1lsB7v160006INS_11char_traitsIcEEEERNS_13basic_ostreamIcT_EES6_c, symObjAddr: 0x6954, symBinAddr: 0x10000A868, symSize: 0x34 }
  - { offsetInCU: 0x17EBF, offset: 0x17EBF, size: 0x8, addend: 0x0, symName: __ZNSt3__116__pad_and_outputB7v160006IcNS_11char_traitsIcEEEENS_19ostreambuf_iteratorIT_T0_EES6_PKS4_S8_S8_RNS_8ios_baseES4_, symObjAddr: 0x6B90, symBinAddr: 0x10000AAA4, symSize: 0x240 }
  - { offsetInCU: 0x17F8E, offset: 0x17F8E, size: 0x8, addend: 0x0, symName: __ZNSt3__19use_facetB7v160006INS_5ctypeIcEEEERKT_RKNS_6localeE, symObjAddr: 0x714C, symBinAddr: 0x10000B060, symSize: 0x2C }
  - { offsetInCU: 0x1845D, offset: 0x1845D, size: 0x8, addend: 0x0, symName: __ZNSt3__1eqB7v160006IP4PartEEbRKNS_11__wrap_iterIT_EES7_, symObjAddr: 0x7278, symBinAddr: 0x10000B18C, symSize: 0x48 }
  - { offsetInCU: 0x184A0, offset: 0x184A0, size: 0x8, addend: 0x0, symName: __ZNSt3__118__constexpr_strlenB7v160006EPKc, symObjAddr: 0x736C, symBinAddr: 0x10000B280, symSize: 0x24 }
  - { offsetInCU: 0x184CC, offset: 0x184CC, size: 0x8, addend: 0x0, symName: __ZNSt3__122__make_exception_guardB7v160006INS_6vectorI9OperationNS_9allocatorIS2_EEE16__destroy_vectorEEENS_28__exception_guard_exceptionsIT_EES8_, symObjAddr: 0x7590, symBinAddr: 0x10000B4A4, symSize: 0x40 }
  - { offsetInCU: 0x18501, offset: 0x18501, size: 0x8, addend: 0x0, symName: __ZNSt3__130__uninitialized_allocator_copyB7v160006INS_9allocatorI9OperationEEPS2_S4_S4_EET2_RT_T0_T1_S5_, symObjAddr: 0x780C, symBinAddr: 0x10000B720, symSize: 0xF4 }
  - { offsetInCU: 0x1859F, offset: 0x1859F, size: 0x8, addend: 0x0, symName: __ZNSt3__122__make_exception_guardB7v160006INS_29_AllocatorDestroyRangeReverseINS_9allocatorI9OperationEEPS3_EEEENS_28__exception_guard_exceptionsIT_EES8_, symObjAddr: 0x7900, symBinAddr: 0x10000B814, symSize: 0x4C }
  - { offsetInCU: 0x185D5, offset: 0x185D5, size: 0x8, addend: 0x0, symName: __ZNSt3__112construct_atB7v160006I9OperationJRS1_EPS1_EEPT_S5_DpOT0_, symObjAddr: 0x7AA4, symBinAddr: 0x10000B9B8, symSize: 0x3C }
  - { offsetInCU: 0x18645, offset: 0x18645, size: 0x8, addend: 0x0, symName: __ZNSt3__119__allocator_destroyB7v160006INS_9allocatorI9OperationEENS_16reverse_iteratorIPS2_EES6_EEvRT_T0_T1_, symObjAddr: 0x7B98, symBinAddr: 0x10000BAAC, symSize: 0x70 }
  - { offsetInCU: 0x186A8, offset: 0x186A8, size: 0x8, addend: 0x0, symName: __ZNSt3__1eqB7v160006IcNS_11char_traitsIcEEEEbNS_17basic_string_viewIT_T0_EES6_, symObjAddr: 0x7C58, symBinAddr: 0x10000BB6C, symSize: 0xB0 }
  - { offsetInCU: 0x186F7, offset: 0x186F7, size: 0x8, addend: 0x0, symName: __ZNSt3__118__constexpr_memcmpB7v160006IcEEiPKT_S3_m, symObjAddr: 0x7F64, symBinAddr: 0x10000BE78, symSize: 0x34 }
  - { offsetInCU: 0x18748, offset: 0x18748, size: 0x8, addend: 0x0, symName: __ZNSt3__112__to_addressB7v160006IKcEEPT_S3_, symObjAddr: 0x7FFC, symBinAddr: 0x10000BF10, symSize: 0x14 }
  - { offsetInCU: 0x187B0, offset: 0x187B0, size: 0x8, addend: 0x0, symName: __ZNSt3__128__char_traits_length_checkedB7v160006INS_11char_traitsIcEEEEmPKNT_9char_typeE, symObjAddr: 0x815C, symBinAddr: 0x10000C070, symSize: 0x24 }
  - { offsetInCU: 0x187E5, offset: 0x187E5, size: 0x8, addend: 0x0, symName: __ZNSt3__118__debug_db_erase_cB7v160006INS_6vectorI4PartNS_9allocatorIS2_EEEEEEvPT_, symObjAddr: 0x84E0, symBinAddr: 0x10000C3F4, symSize: 0x10 }
  - { offsetInCU: 0x18849, offset: 0x18849, size: 0x8, addend: 0x0, symName: __ZNSt3__110destroy_atB7v160006INS_4pairIKNS_12basic_stringIcNS_11char_traitsIcEENS_9allocatorIcEEEE8WorkflowEELi0EEEvPT_, symObjAddr: 0x8D38, symBinAddr: 0x10000CC4C, symSize: 0x24 }
  - { offsetInCU: 0x18880, offset: 0x18880, size: 0x8, addend: 0x0, symName: __ZNSt3__112__destroy_atB7v160006INS_4pairIKNS_12basic_stringIcNS_11char_traitsIcEENS_9allocatorIcEEEE8WorkflowEELi0EEEvPT_, symObjAddr: 0x8D5C, symBinAddr: 0x10000CC70, symSize: 0x24 }
  - { offsetInCU: 0x188B7, offset: 0x188B7, size: 0x8, addend: 0x0, symName: __ZNSt3__17launderB7v160006INS_4pairIKNS_12basic_stringIcNS_11char_traitsIcEENS_9allocatorIcEEEE8WorkflowEEEEPT_SC_, symObjAddr: 0x8E08, symBinAddr: 0x10000CD1C, symSize: 0x24 }
  - { offsetInCU: 0x188EE, offset: 0x188EE, size: 0x8, addend: 0x0, symName: __ZNSt3__19__launderB7v160006INS_4pairIKNS_12basic_stringIcNS_11char_traitsIcEENS_9allocatorIcEEEE8WorkflowEEEEPT_SC_, symObjAddr: 0x8E2C, symBinAddr: 0x10000CD40, symSize: 0x14 }
  - { offsetInCU: 0x18925, offset: 0x18925, size: 0x8, addend: 0x0, symName: __ZNSt3__125__debug_db_invalidate_allB7v160006INS_12basic_stringIcNS_11char_traitsIcEENS_9allocatorIcEEEEEEvPT_, symObjAddr: 0x9360, symBinAddr: 0x10000D274, symSize: 0x10 }
  - { offsetInCU: 0x1895F, offset: 0x1895F, size: 0x8, addend: 0x0, symName: __ZNSt3__1ltB7v160006ENS_15strong_orderingENS_20_CmpUnspecifiedParamE, symObjAddr: 0x9BB8, symBinAddr: 0x10000DACC, symSize: 0x24 }
  - { offsetInCU: 0x18998, offset: 0x18998, size: 0x8, addend: 0x0, symName: __ZNSt3__1ssB7v160006IcNS_11char_traitsIcEENS_9allocatorIcEEEEDaRKNS_12basic_stringIT_T0_T1_EESC_, symObjAddr: 0x9BDC, symBinAddr: 0x10000DAF0, symSize: 0x5C }
  - { offsetInCU: 0x18A0C, offset: 0x18A0C, size: 0x8, addend: 0x0, symName: __ZNSt3__1ssB7v160006IcNS_11char_traitsIcEEEEDaNS_17basic_string_viewIT_T0_EES7_, symObjAddr: 0x9C6C, symBinAddr: 0x10000DB80, symSize: 0x7C }
  - { offsetInCU: 0x18A5B, offset: 0x18A5B, size: 0x8, addend: 0x0, symName: __ZNSt3__17launderB7v160006IKNS_4pairIKNS_12basic_stringIcNS_11char_traitsIcEENS_9allocatorIcEEEE8WorkflowEEEEPT_SD_, symObjAddr: 0x9D00, symBinAddr: 0x10000DC14, symSize: 0x24 }
  - { offsetInCU: 0x18A92, offset: 0x18A92, size: 0x8, addend: 0x0, symName: __ZNSt3__19__launderB7v160006IKNS_4pairIKNS_12basic_stringIcNS_11char_traitsIcEENS_9allocatorIcEEEE8WorkflowEEEEPT_SD_, symObjAddr: 0x9D24, symBinAddr: 0x10000DC38, symSize: 0x14 }
  - { offsetInCU: 0x18B0C, offset: 0x18B0C, size: 0x8, addend: 0x0, symName: __ZNSt3__112construct_atB7v160006INS_4pairIKNS_12basic_stringIcNS_11char_traitsIcEENS_9allocatorIcEEEE8WorkflowEEJNS1_IS7_S9_EEEPSA_EEPT_SE_DpOT0_, symObjAddr: 0xA034, symBinAddr: 0x10000DF48, symSize: 0x3C }
  - { offsetInCU: 0x18B7C, offset: 0x18B7C, size: 0x8, addend: 0x0, symName: __ZNSt3__115__debug_db_swapB7v160006INS_6vectorI9OperationNS_9allocatorIS2_EEEEEEvPT_S7_, symObjAddr: 0xA278, symBinAddr: 0x10000E18C, symSize: 0x14 }
  - { offsetInCU: 0x18BBB, offset: 0x18BBB, size: 0x8, addend: 0x0, symName: __ZNSt3__127__tree_balance_after_insertB7v160006IPNS_16__tree_node_baseIPvEEEEvT_S5_, symObjAddr: 0xA300, symBinAddr: 0x10000E214, symSize: 0x32C }
  - { offsetInCU: 0x18C37, offset: 0x18C37, size: 0x8, addend: 0x0, symName: __ZNSt3__120__tree_is_left_childB7v160006IPNS_16__tree_node_baseIPvEEEEbT_, symObjAddr: 0xA66C, symBinAddr: 0x10000E580, symSize: 0x2C }
  - { offsetInCU: 0x18C6C, offset: 0x18C6C, size: 0x8, addend: 0x0, symName: __ZNSt3__118__tree_left_rotateB7v160006IPNS_16__tree_node_baseIPvEEEEvT_, symObjAddr: 0xA698, symBinAddr: 0x10000E5AC, symSize: 0xD8 }
  - { offsetInCU: 0x18CAE, offset: 0x18CAE, size: 0x8, addend: 0x0, symName: __ZNSt3__119__tree_right_rotateB7v160006IPNS_16__tree_node_baseIPvEEEEvT_, symObjAddr: 0xA770, symBinAddr: 0x10000E684, symSize: 0xCC }
  - { offsetInCU: 0x18CF0, offset: 0x18CF0, size: 0x8, addend: 0x0, symName: __ZNSt3__1neB7v160006ERKNS_15__tree_iteratorINS_12__value_typeINS_12basic_stringIcNS_11char_traitsIcEENS_9allocatorIcEEEE8WorkflowEEPNS_11__tree_nodeIS9_PvEElEESG_, symObjAddr: 0xABC4, symBinAddr: 0x10000EAD8, symSize: 0x34 }
  - { offsetInCU: 0x18D2D, offset: 0x18D2D, size: 0x8, addend: 0x0, symName: __ZNSt3__1eqB7v160006ERKNS_15__tree_iteratorINS_12__value_typeINS_12basic_stringIcNS_11char_traitsIcEENS_9allocatorIcEEEE8WorkflowEEPNS_11__tree_nodeIS9_PvEElEESG_, symObjAddr: 0xABF8, symBinAddr: 0x10000EB0C, symSize: 0x30 }
  - { offsetInCU: 0x18D6A, offset: 0x18D6A, size: 0x8, addend: 0x0, symName: __ZNSt3__116__tree_next_iterB7v160006IPNS_15__tree_end_nodeIPNS_16__tree_node_baseIPvEEEES5_EET_T0_, symObjAddr: 0xAC60, symBinAddr: 0x10000EB74, symSize: 0x80 }
  - { offsetInCU: 0x18DA8, offset: 0x18DA8, size: 0x8, addend: 0x0, symName: __ZNSt3__110__tree_minB7v160006IPNS_16__tree_node_baseIPvEEEET_S5_, symObjAddr: 0xACE0, symBinAddr: 0x10000EBF4, symSize: 0x40 }
  - { offsetInCU: 0x19458, offset: 0x19458, size: 0x8, addend: 0x0, symName: __ZSt28__throw_bad_array_new_lengthB7v160006v, symObjAddr: 0x3850, symBinAddr: 0x100007764, symSize: 0x34 }
  - { offsetInCU: 0x1A015, offset: 0x1A015, size: 0x8, addend: 0x0, symName: __ZNSt3__16vectorI9OperationNS_9allocatorIS1_EEE26__swap_out_circular_bufferERNS_14__split_bufferIS1_RS3_EE, symObjAddr: 0x30A8, symBinAddr: 0x100006FBC, symSize: 0x118 }
  - { offsetInCU: 0x1A2B8, offset: 0x1A2B8, size: 0x8, addend: 0x0, symName: __ZNSt3__16vectorI4PartNS_9allocatorIS1_EEE26__swap_out_circular_bufferERNS_14__split_bufferIS1_RS3_EE, symObjAddr: 0x53E8, symBinAddr: 0x1000092FC, symSize: 0x118 }
  - { offsetInCU: 0x1A8EF, offset: 0x1A8EF, size: 0x8, addend: 0x0, symName: __Z3powB7v160006IiiENSt3__19enable_ifIXaasr3std13is_arithmeticIT_EE5valuesr3std13is_arithmeticIT0_EE5valueENS0_9__promoteIS2_S3_vEEE4type4typeES2_S3_, symObjAddr: 0x1998, symBinAddr: 0x1000058AC, symSize: 0x44 }
  - { offsetInCU: 0x1CB3D, offset: 0x1CB3D, size: 0x8, addend: 0x0, symName: __Z12process_part4Part8Workflow, symObjAddr: 0x0, symBinAddr: 0x100003F14, symSize: 0x1DC }
  - { offsetInCU: 0x1CC17, offset: 0x1CC17, size: 0x8, addend: 0x0, symName: __ZNSt3__16vectorI9OperationNS_9allocatorIS1_EEE5beginB7v160006Ev, symObjAddr: 0x1DC, symBinAddr: 0x1000040F0, symSize: 0x30 }
  - { offsetInCU: 0x1CC3F, offset: 0x1CC3F, size: 0x8, addend: 0x0, symName: __ZNSt3__16vectorI9OperationNS_9allocatorIS1_EEE3endB7v160006Ev, symObjAddr: 0x20C, symBinAddr: 0x100004120, symSize: 0x30 }
  - { offsetInCU: 0x1CC67, offset: 0x1CC67, size: 0x8, addend: 0x0, symName: __ZNKSt3__111__wrap_iterIP9OperationEdeB7v160006Ev, symObjAddr: 0x270, symBinAddr: 0x100004184, symSize: 0x18 }
  - { offsetInCU: 0x1CC8D, offset: 0x1CC8D, size: 0x8, addend: 0x0, symName: __ZN9OperationC1ERKS_, symObjAddr: 0x288, symBinAddr: 0x10000419C, symSize: 0x34 }
  - { offsetInCU: 0x1CCCC, offset: 0x1CCCC, size: 0x8, addend: 0x0, symName: '__ZZ12process_part4Part8WorkflowENK3$_0clEiic', symObjAddr: 0x2BC, symBinAddr: 0x1000041D0, symSize: 0xD4 }
  - { offsetInCU: 0x1CD20, offset: 0x1CD20, size: 0x8, addend: 0x0, symName: __ZN9OperationD1Ev, symObjAddr: 0x390, symBinAddr: 0x1000042A4, symSize: 0x2C }
  - { offsetInCU: 0x1CD4C, offset: 0x1CD4C, size: 0x8, addend: 0x0, symName: __ZNSt3__111__wrap_iterIP9OperationEppB7v160006Ev, symObjAddr: 0x3BC, symBinAddr: 0x1000042D0, symSize: 0x20 }
  - { offsetInCU: 0x1CD72, offset: 0x1CD72, size: 0x8, addend: 0x0, symName: _main, symObjAddr: 0x3DC, symBinAddr: 0x1000042F0, symSize: 0xDF8 }
  - { offsetInCU: 0x1D226, offset: 0x1D226, size: 0x8, addend: 0x0, symName: __ZNSt3__114basic_ifstreamIcNS_11char_traitsIcEEEC1Ev, symObjAddr: 0x11D4, symBinAddr: 0x1000050E8, symSize: 0xE8 }
  - { offsetInCU: 0x1D252, offset: 0x1D252, size: 0x8, addend: 0x0, symName: __ZNSt3__112basic_stringIcNS_11char_traitsIcEENS_9allocatorIcEEEC1B7v160006Ev, symObjAddr: 0x12BC, symBinAddr: 0x1000051D0, symSize: 0x2C }
  - { offsetInCU: 0x1D27C, offset: 0x1D27C, size: 0x8, addend: 0x0, symName: __ZNSt3__13mapINS_12basic_stringIcNS_11char_traitsIcEENS_9allocatorIcEEEE8WorkflowNS_4lessIS6_EENS4_INS_4pairIKS6_S7_EEEEEC1B7v160006Ev, symObjAddr: 0x12E8, symBinAddr: 0x1000051FC, symSize: 0x2C }
  - { offsetInCU: 0x1D2A6, offset: 0x1D2A6, size: 0x8, addend: 0x0, symName: __ZNSt3__16vectorI4PartNS_9allocatorIS1_EEEC1B7v160006Ev, symObjAddr: 0x1314, symBinAddr: 0x100005228, symSize: 0x2C }
  - { offsetInCU: 0x1D2D0, offset: 0x1D2D0, size: 0x8, addend: 0x0, symName: __ZNKSt3__19basic_iosIcNS_11char_traitsIcEEEcvbB7v160006Ev, symObjAddr: 0x1340, symBinAddr: 0x100005254, symSize: 0x2C }
  - { offsetInCU: 0x1D2F6, offset: 0x1D2F6, size: 0x8, addend: 0x0, symName: __ZNKSt3__19basic_iosIcNS_11char_traitsIcEEE3eofB7v160006Ev, symObjAddr: 0x136C, symBinAddr: 0x100005280, symSize: 0x28 }
  - { offsetInCU: 0x1D383, offset: 0x1D383, size: 0x8, addend: 0x0, symName: __ZNSt3__118basic_stringstreamIcNS_11char_traitsIcEENS_9allocatorIcEEEC1B7v160006Ev, symObjAddr: 0x1394, symBinAddr: 0x1000052A8, symSize: 0x104 }
  - { offsetInCU: 0x1D3AD, offset: 0x1D3AD, size: 0x8, addend: 0x0, symName: __ZNKSt3__112basic_stringIcNS_11char_traitsIcEENS_9allocatorIcEEE5emptyB7v160006Ev, symObjAddr: 0x14F4, symBinAddr: 0x100005408, symSize: 0x30 }
  - { offsetInCU: 0x1D3D8, offset: 0x1D3D8, size: 0x8, addend: 0x0, symName: __ZN8WorkflowC1Ev, symObjAddr: 0x1524, symBinAddr: 0x100005438, symSize: 0x2C }
  - { offsetInCU: 0x1D404, offset: 0x1D404, size: 0x8, addend: 0x0, symName: __ZNSt3__112basic_stringIcNS_11char_traitsIcEENS_9allocatorIcEEE8pop_backB7v160006Ev, symObjAddr: 0x17D4, symBinAddr: 0x1000056E8, symSize: 0x38 }
  - { offsetInCU: 0x1D42C, offset: 0x1D42C, size: 0x8, addend: 0x0, symName: __ZNSt3__16vectorI9OperationNS_9allocatorIS1_EEE9push_backB7v160006ERKS1_, symObjAddr: 0x19DC, symBinAddr: 0x1000058F0, symSize: 0x6C }
  - { offsetInCU: 0x1D468, offset: 0x1D468, size: 0x8, addend: 0x0, symName: __ZNSt3__118basic_stringstreamIcNS_11char_traitsIcEENS_9allocatorIcEEED1Ev, symObjAddr: 0x1A48, symBinAddr: 0x10000595C, symSize: 0x40 }
  - { offsetInCU: 0x1D4B1, offset: 0x1D4B1, size: 0x8, addend: 0x0, symName: __ZNSt3__13mapINS_12basic_stringIcNS_11char_traitsIcEENS_9allocatorIcEEEE8WorkflowNS_4lessIS6_EENS4_INS_4pairIKS6_S7_EEEEE7emplaceB7v160006IJNSA_IS6_S7_EEEEENSA_INS_14__map_iteratorINS_15__tree_iteratorINS_12__value_typeIS6_S7_EEPNS_11__tree_nodeISK_PvEElEEEEbEEDpOT_, symObjAddr: 0x1A88, symBinAddr: 0x10000599C, symSize: 0x4C }
  - { offsetInCU: 0x1D4F1, offset: 0x1D4F1, size: 0x8, addend: 0x0, symName: __ZNSt3__14pairINS_12basic_stringIcNS_11char_traitsIcEENS_9allocatorIcEEEE8WorkflowED1Ev, symObjAddr: 0x1B14, symBinAddr: 0x100005A28, symSize: 0x2C }
  - { offsetInCU: 0x1D51D, offset: 0x1D51D, size: 0x8, addend: 0x0, symName: __ZN8WorkflowD1Ev, symObjAddr: 0x1B40, symBinAddr: 0x100005A54, symSize: 0x2C }
  - { offsetInCU: 0x1D549, offset: 0x1D549, size: 0x8, addend: 0x0, symName: __ZNSt3__16vectorI4PartNS_9allocatorIS1_EEE9push_backB7v160006ERKS1_, symObjAddr: 0x1B6C, symBinAddr: 0x100005A80, symSize: 0x6C }
  - { offsetInCU: 0x1D580, offset: 0x1D580, size: 0x8, addend: 0x0, symName: __ZNSt3__13mapINS_12basic_stringIcNS_11char_traitsIcEENS_9allocatorIcEEEE8WorkflowNS_4lessIS6_EENS4_INS_4pairIKS6_S7_EEEEE5beginB7v160006Ev, symObjAddr: 0x1BD8, symBinAddr: 0x100005AEC, symSize: 0x38 }
  - { offsetInCU: 0x1D5A6, offset: 0x1D5A6, size: 0x8, addend: 0x0, symName: __ZNSt3__13mapINS_12basic_stringIcNS_11char_traitsIcEENS_9allocatorIcEEEE8WorkflowNS_4lessIS6_EENS4_INS_4pairIKS6_S7_EEEEE3endB7v160006Ev, symObjAddr: 0x1C10, symBinAddr: 0x100005B24, symSize: 0x38 }
  - { offsetInCU: 0x1D5CC, offset: 0x1D5CC, size: 0x8, addend: 0x0, symName: __ZNKSt3__114__map_iteratorINS_15__tree_iteratorINS_12__value_typeINS_12basic_stringIcNS_11char_traitsIcEENS_9allocatorIcEEEE8WorkflowEEPNS_11__tree_nodeISA_PvEElEEEdeB7v160006Ev, symObjAddr: 0x1C78, symBinAddr: 0x100005B8C, symSize: 0x28 }
  - { offsetInCU: 0x1D5F2, offset: 0x1D5F2, size: 0x8, addend: 0x0, symName: __ZNSt3__113basic_ostreamIcNS_11char_traitsIcEEElsB7v160006EPFRS3_S4_E, symObjAddr: 0x1D30, symBinAddr: 0x100005C44, symSize: 0x2C }
  - { offsetInCU: 0x1D626, offset: 0x1D626, size: 0x8, addend: 0x0, symName: __ZNK8Workflow5printEv, symObjAddr: 0x1DB4, symBinAddr: 0x100005CC8, symSize: 0xE0 }
  - { offsetInCU: 0x1D68D, offset: 0x1D68D, size: 0x8, addend: 0x0, symName: __ZNSt3__114__map_iteratorINS_15__tree_iteratorINS_12__value_typeINS_12basic_stringIcNS_11char_traitsIcEENS_9allocatorIcEEEE8WorkflowEEPNS_11__tree_nodeISA_PvEElEEEppB7v160006Ev, symObjAddr: 0x1E94, symBinAddr: 0x100005DA8, symSize: 0x2C }
  - { offsetInCU: 0x1D6B3, offset: 0x1D6B3, size: 0x8, addend: 0x0, symName: __ZNSt3__16vectorI4PartNS_9allocatorIS1_EEE5beginB7v160006Ev, symObjAddr: 0x1EC0, symBinAddr: 0x100005DD4, symSize: 0x30 }
  - { offsetInCU: 0x1D6DB, offset: 0x1D6DB, size: 0x8, addend: 0x0, symName: __ZNSt3__16vectorI4PartNS_9allocatorIS1_EEE3endB7v160006Ev, symObjAddr: 0x1EF0, symBinAddr: 0x100005E04, symSize: 0x30 }
  - { offsetInCU: 0x1D703, offset: 0x1D703, size: 0x8, addend: 0x0, symName: __ZNKSt3__111__wrap_iterIP4PartEdeB7v160006Ev, symObjAddr: 0x1F54, symBinAddr: 0x100005E68, symSize: 0x18 }
  - { offsetInCU: 0x1D729, offset: 0x1D729, size: 0x8, addend: 0x0, symName: __ZNSt3__13mapINS_12basic_stringIcNS_11char_traitsIcEENS_9allocatorIcEEEE8WorkflowNS_4lessIS6_EENS4_INS_4pairIKS6_S7_EEEEE4findB7v160006ERSB_, symObjAddr: 0x1F6C, symBinAddr: 0x100005E80, symSize: 0x40 }
  - { offsetInCU: 0x1D763, offset: 0x1D763, size: 0x8, addend: 0x0, symName: __ZNSt3__112basic_stringIcNS_11char_traitsIcEENS_9allocatorIcEEEC1B7v160006IDnEEPKc, symObjAddr: 0x1FAC, symBinAddr: 0x100005EC0, symSize: 0x34 }
  - { offsetInCU: 0x1D7A1, offset: 0x1D7A1, size: 0x8, addend: 0x0, symName: __ZNKSt3__114__map_iteratorINS_15__tree_iteratorINS_12__value_typeINS_12basic_stringIcNS_11char_traitsIcEENS_9allocatorIcEEEE8WorkflowEEPNS_11__tree_nodeISA_PvEElEEEptB7v160006Ev, symObjAddr: 0x1FE0, symBinAddr: 0x100005EF4, symSize: 0x2C }
  - { offsetInCU: 0x1D7CD, offset: 0x1D7CD, size: 0x8, addend: 0x0, symName: __ZN8WorkflowC1ERKS_, symObjAddr: 0x200C, symBinAddr: 0x100005F20, symSize: 0x34 }
  - { offsetInCU: 0x1D802, offset: 0x1D802, size: 0x8, addend: 0x0, symName: __ZNSt3__112basic_stringIcNS_11char_traitsIcEENS_9allocatorIcEEEaSB7v160006EOS5_, symObjAddr: 0x209C, symBinAddr: 0x100005FB0, symSize: 0x34 }
  - { offsetInCU: 0x1D837, offset: 0x1D837, size: 0x8, addend: 0x0, symName: __ZNSt3__111__wrap_iterIP4PartEppB7v160006Ev, symObjAddr: 0x20D0, symBinAddr: 0x100005FE4, symSize: 0x20 }
  - { offsetInCU: 0x1D85D, offset: 0x1D85D, size: 0x8, addend: 0x0, symName: __ZN4Part11sum_ratingsEv, symObjAddr: 0x20F0, symBinAddr: 0x100006004, symSize: 0x30 }
  - { offsetInCU: 0x1D883, offset: 0x1D883, size: 0x8, addend: 0x0, symName: __ZNSt3__16vectorI4PartNS_9allocatorIS1_EEED1B7v160006Ev, symObjAddr: 0x2120, symBinAddr: 0x100006034, symSize: 0x2C }
  - { offsetInCU: 0x1D8AD, offset: 0x1D8AD, size: 0x8, addend: 0x0, symName: __ZNSt3__13mapINS_12basic_stringIcNS_11char_traitsIcEENS_9allocatorIcEEEE8WorkflowNS_4lessIS6_EENS4_INS_4pairIKS6_S7_EEEEED1B7v160006Ev, symObjAddr: 0x214C, symBinAddr: 0x100006060, symSize: 0x2C }
  - { offsetInCU: 0x1D8DC, offset: 0x1D8DC, size: 0x8, addend: 0x0, symName: __ZNSt3__114basic_ifstreamIcNS_11char_traitsIcEEED1Ev, symObjAddr: 0x2178, symBinAddr: 0x10000608C, symSize: 0x40 }
  - { offsetInCU: 0x1D909, offset: 0x1D909, size: 0x8, addend: 0x0, symName: __ZNSt3__16vectorI9OperationNS_9allocatorIS1_EEE11__make_iterB7v160006EPS1_, symObjAddr: 0x21B8, symBinAddr: 0x1000060CC, symSize: 0x34 }
  - { offsetInCU: 0x1D93E, offset: 0x1D93E, size: 0x8, addend: 0x0, symName: __ZNSt3__111__wrap_iterIP9OperationEC1B7v160006EPKvS2_, symObjAddr: 0x21EC, symBinAddr: 0x100006100, symSize: 0x3C }
  - { offsetInCU: 0x1D984, offset: 0x1D984, size: 0x8, addend: 0x0, symName: __ZNSt3__111__wrap_iterIP9OperationEC2B7v160006EPKvS2_, symObjAddr: 0x2228, symBinAddr: 0x10000613C, symSize: 0x24 }
  - { offsetInCU: 0x1D9CA, offset: 0x1D9CA, size: 0x8, addend: 0x0, symName: __ZNKSt3__111__wrap_iterIP9OperationE4baseB7v160006Ev, symObjAddr: 0x2294, symBinAddr: 0x1000061A8, symSize: 0x18 }
  - { offsetInCU: 0x1D9F0, offset: 0x1D9F0, size: 0x8, addend: 0x0, symName: __ZN9OperationC2ERKS_, symObjAddr: 0x22AC, symBinAddr: 0x1000061C0, symSize: 0x50 }
  - { offsetInCU: 0x1DA25, offset: 0x1DA25, size: 0x8, addend: 0x0, symName: __ZN9OperationD2Ev, symObjAddr: 0x22FC, symBinAddr: 0x100006210, symSize: 0x30 }
  - { offsetInCU: 0x1DA51, offset: 0x1DA51, size: 0x8, addend: 0x0, symName: __ZNSt3__112basic_stringIcNS_11char_traitsIcEENS_9allocatorIcEEEC2B7v160006Ev, symObjAddr: 0x232C, symBinAddr: 0x100006240, symSize: 0x54 }
  - { offsetInCU: 0x1DA81, offset: 0x1DA81, size: 0x8, addend: 0x0, symName: __ZNSt3__117__compressed_pairINS_12basic_stringIcNS_11char_traitsIcEENS_9allocatorIcEEE5__repES5_EC1B7v160006INS_18__default_init_tagESA_EEOT_OT0_, symObjAddr: 0x2380, symBinAddr: 0x100006294, symSize: 0x3C }
  - { offsetInCU: 0x1DAD9, offset: 0x1DAD9, size: 0x8, addend: 0x0, symName: __ZNSt3__112basic_stringIcNS_11char_traitsIcEENS_9allocatorIcEEE14__default_initB7v160006Ev, symObjAddr: 0x23D8, symBinAddr: 0x1000062EC, symSize: 0x40 }
  - { offsetInCU: 0x1DAFF, offset: 0x1DAFF, size: 0x8, addend: 0x0, symName: __ZNSt3__117__compressed_pairINS_12basic_stringIcNS_11char_traitsIcEENS_9allocatorIcEEE5__repES5_EC2B7v160006INS_18__default_init_tagESA_EEOT_OT0_, symObjAddr: 0x2418, symBinAddr: 0x10000632C, symSize: 0x3C }
  - { offsetInCU: 0x1DB57, offset: 0x1DB57, size: 0x8, addend: 0x0, symName: __ZNSt3__122__compressed_pair_elemINS_12basic_stringIcNS_11char_traitsIcEENS_9allocatorIcEEE5__repELi0ELb0EEC2B7v160006ENS_18__default_init_tagE, symObjAddr: 0x2454, symBinAddr: 0x100006368, symSize: 0x14 }
  - { offsetInCU: 0x1DB8B, offset: 0x1DB8B, size: 0x8, addend: 0x0, symName: __ZNSt3__122__compressed_pair_elemINS_9allocatorIcEELi1ELb1EEC2B7v160006ENS_18__default_init_tagE, symObjAddr: 0x2468, symBinAddr: 0x10000637C, symSize: 0x2C }
  - { offsetInCU: 0x1DBBF, offset: 0x1DBBF, size: 0x8, addend: 0x0, symName: __ZNSt3__19allocatorIcEC2B7v160006Ev, symObjAddr: 0x2494, symBinAddr: 0x1000063A8, symSize: 0x2C }
  - { offsetInCU: 0x1DBE9, offset: 0x1DBE9, size: 0x8, addend: 0x0, symName: __ZNSt3__116__non_trivial_ifILb1ENS_9allocatorIcEEEC2B7v160006Ev, symObjAddr: 0x24C0, symBinAddr: 0x1000063D4, symSize: 0x14 }
  - { offsetInCU: 0x1DC13, offset: 0x1DC13, size: 0x8, addend: 0x0, symName: __ZNSt3__117__compressed_pairINS_12basic_stringIcNS_11char_traitsIcEENS_9allocatorIcEEE5__repES5_E5firstB7v160006Ev, symObjAddr: 0x24D4, symBinAddr: 0x1000063E8, symSize: 0x24 }
  - { offsetInCU: 0x1DC39, offset: 0x1DC39, size: 0x8, addend: 0x0, symName: __ZNSt3__122__compressed_pair_elemINS_12basic_stringIcNS_11char_traitsIcEENS_9allocatorIcEEE5__repELi0ELb0EE5__getB7v160006Ev, symObjAddr: 0x24F8, symBinAddr: 0x10000640C, symSize: 0x14 }
  - { offsetInCU: 0x1DC5F, offset: 0x1DC5F, size: 0x8, addend: 0x0, symName: __ZNSt3__16vectorI4PartNS_9allocatorIS1_EEEC2B7v160006Ev, symObjAddr: 0x250C, symBinAddr: 0x100006420, symSize: 0x58 }
  - { offsetInCU: 0x1DC8F, offset: 0x1DC8F, size: 0x8, addend: 0x0, symName: __ZNSt3__117__compressed_pairIP4PartNS_9allocatorIS1_EEEC1B7v160006IDnNS_18__default_init_tagEEEOT_OT0_, symObjAddr: 0x2564, symBinAddr: 0x100006478, symSize: 0x3C }
  - { offsetInCU: 0x1DCE7, offset: 0x1DCE7, size: 0x8, addend: 0x0, symName: __ZNSt3__117__compressed_pairIP4PartNS_9allocatorIS1_EEEC2B7v160006IDnNS_18__default_init_tagEEEOT_OT0_, symObjAddr: 0x25B0, symBinAddr: 0x1000064C4, symSize: 0x40 }
  - { offsetInCU: 0x1DD3F, offset: 0x1DD3F, size: 0x8, addend: 0x0, symName: __ZNSt3__122__compressed_pair_elemIP4PartLi0ELb0EEC2B7v160006IDnvEEOT_, symObjAddr: 0x25F0, symBinAddr: 0x100006504, symSize: 0x1C }
  - { offsetInCU: 0x1DD81, offset: 0x1DD81, size: 0x8, addend: 0x0, symName: __ZNSt3__122__compressed_pair_elemINS_9allocatorI4PartEELi1ELb1EEC2B7v160006ENS_18__default_init_tagE, symObjAddr: 0x260C, symBinAddr: 0x100006520, symSize: 0x2C }
  - { offsetInCU: 0x1DDB5, offset: 0x1DDB5, size: 0x8, addend: 0x0, symName: __ZNSt3__19allocatorI4PartEC2B7v160006Ev, symObjAddr: 0x2638, symBinAddr: 0x10000654C, symSize: 0x2C }
  - { offsetInCU: 0x1DDDF, offset: 0x1DDDF, size: 0x8, addend: 0x0, symName: __ZNSt3__116__non_trivial_ifILb1ENS_9allocatorI4PartEEEC2B7v160006Ev, symObjAddr: 0x2664, symBinAddr: 0x100006578, symSize: 0x14 }
  - { offsetInCU: 0x1DE09, offset: 0x1DE09, size: 0x8, addend: 0x0, symName: __ZNKSt3__112basic_stringIcNS_11char_traitsIcEENS_9allocatorIcEEE4sizeB7v160006Ev, symObjAddr: 0x2678, symBinAddr: 0x10000658C, symSize: 0x54 }
  - { offsetInCU: 0x1DE2F, offset: 0x1DE2F, size: 0x8, addend: 0x0, symName: __ZNKSt3__112basic_stringIcNS_11char_traitsIcEENS_9allocatorIcEEE9__is_longB7v160006Ev, symObjAddr: 0x26CC, symBinAddr: 0x1000065E0, symSize: 0x38 }
  - { offsetInCU: 0x1DE55, offset: 0x1DE55, size: 0x8, addend: 0x0, symName: __ZNKSt3__112basic_stringIcNS_11char_traitsIcEENS_9allocatorIcEEE15__get_long_sizeB7v160006Ev, symObjAddr: 0x2704, symBinAddr: 0x100006618, symSize: 0x28 }
  - { offsetInCU: 0x1DE7B, offset: 0x1DE7B, size: 0x8, addend: 0x0, symName: __ZNKSt3__112basic_stringIcNS_11char_traitsIcEENS_9allocatorIcEEE16__get_short_sizeB7v160006Ev, symObjAddr: 0x272C, symBinAddr: 0x100006640, symSize: 0x34 }
  - { offsetInCU: 0x1DEA1, offset: 0x1DEA1, size: 0x8, addend: 0x0, symName: __ZNKSt3__117__compressed_pairINS_12basic_stringIcNS_11char_traitsIcEENS_9allocatorIcEEE5__repES5_E5firstB7v160006Ev, symObjAddr: 0x2760, symBinAddr: 0x100006674, symSize: 0x24 }
  - { offsetInCU: 0x1DEC7, offset: 0x1DEC7, size: 0x8, addend: 0x0, symName: __ZNKSt3__122__compressed_pair_elemINS_12basic_stringIcNS_11char_traitsIcEENS_9allocatorIcEEE5__repELi0ELb0EE5__getB7v160006Ev, symObjAddr: 0x2784, symBinAddr: 0x100006698, symSize: 0x14 }
  - { offsetInCU: 0x1DEED, offset: 0x1DEED, size: 0x8, addend: 0x0, symName: __ZN8WorkflowC2Ev, symObjAddr: 0x2798, symBinAddr: 0x1000066AC, symSize: 0x38 }
  - { offsetInCU: 0x1DF19, offset: 0x1DF19, size: 0x8, addend: 0x0, symName: __ZNSt3__16vectorI9OperationNS_9allocatorIS1_EEEC1B7v160006Ev, symObjAddr: 0x27D0, symBinAddr: 0x1000066E4, symSize: 0x2C }
  - { offsetInCU: 0x1DF43, offset: 0x1DF43, size: 0x8, addend: 0x0, symName: __ZNSt3__16vectorI9OperationNS_9allocatorIS1_EEEC2B7v160006Ev, symObjAddr: 0x27FC, symBinAddr: 0x100006710, symSize: 0x58 }
  - { offsetInCU: 0x1DF6D, offset: 0x1DF6D, size: 0x8, addend: 0x0, symName: __ZNSt3__117__compressed_pairIP9OperationNS_9allocatorIS1_EEEC1B7v160006IDnNS_18__default_init_tagEEEOT_OT0_, symObjAddr: 0x2854, symBinAddr: 0x100006768, symSize: 0x3C }
  - { offsetInCU: 0x1DFC5, offset: 0x1DFC5, size: 0x8, addend: 0x0, symName: __ZNSt3__117__compressed_pairIP9OperationNS_9allocatorIS1_EEEC2B7v160006IDnNS_18__default_init_tagEEEOT_OT0_, symObjAddr: 0x28A0, symBinAddr: 0x1000067B4, symSize: 0x40 }
  - { offsetInCU: 0x1E01D, offset: 0x1E01D, size: 0x8, addend: 0x0, symName: __ZNSt3__122__compressed_pair_elemIP9OperationLi0ELb0EEC2B7v160006IDnvEEOT_, symObjAddr: 0x28E0, symBinAddr: 0x1000067F4, symSize: 0x1C }
  - { offsetInCU: 0x1E05F, offset: 0x1E05F, size: 0x8, addend: 0x0, symName: __ZNSt3__122__compressed_pair_elemINS_9allocatorI9OperationEELi1ELb1EEC2B7v160006ENS_18__default_init_tagE, symObjAddr: 0x28FC, symBinAddr: 0x100006810, symSize: 0x2C }
  - { offsetInCU: 0x1E093, offset: 0x1E093, size: 0x8, addend: 0x0, symName: __ZNSt3__19allocatorI9OperationEC2B7v160006Ev, symObjAddr: 0x2928, symBinAddr: 0x10000683C, symSize: 0x2C }
  - { offsetInCU: 0x1E0BD, offset: 0x1E0BD, size: 0x8, addend: 0x0, symName: __ZNSt3__116__non_trivial_ifILb1ENS_9allocatorI9OperationEEEC2B7v160006Ev, symObjAddr: 0x2954, symBinAddr: 0x100006868, symSize: 0x14 }
  - { offsetInCU: 0x1E0E7, offset: 0x1E0E7, size: 0x8, addend: 0x0, symName: __ZNSt3__112basic_stringIcNS_11char_traitsIcEENS_9allocatorIcEEE14__erase_to_endB7v160006Em, symObjAddr: 0x2968, symBinAddr: 0x10000687C, symSize: 0x40 }
  - { offsetInCU: 0x1E11C, offset: 0x1E11C, size: 0x8, addend: 0x0, symName: __ZNSt3__112basic_stringIcNS_11char_traitsIcEENS_9allocatorIcEEE19__null_terminate_atB7v160006EPcm, symObjAddr: 0x29A8, symBinAddr: 0x1000068BC, symSize: 0x5C }
  - { offsetInCU: 0x1E160, offset: 0x1E160, size: 0x8, addend: 0x0, symName: __ZNSt3__112basic_stringIcNS_11char_traitsIcEENS_9allocatorIcEEE13__get_pointerB7v160006Ev, symObjAddr: 0x2A18, symBinAddr: 0x10000692C, symSize: 0x54 }
  - { offsetInCU: 0x1E186, offset: 0x1E186, size: 0x8, addend: 0x0, symName: __ZNSt3__112basic_stringIcNS_11char_traitsIcEENS_9allocatorIcEEE10__set_sizeB7v160006Em, symObjAddr: 0x2A6C, symBinAddr: 0x100006980, symSize: 0x54 }
  - { offsetInCU: 0x1E1BB, offset: 0x1E1BB, size: 0x8, addend: 0x0, symName: __ZNSt3__112basic_stringIcNS_11char_traitsIcEENS_9allocatorIcEEE27__invalidate_iterators_pastB7v160006Em, symObjAddr: 0x2AC0, symBinAddr: 0x1000069D4, symSize: 0x14 }
  - { offsetInCU: 0x1E1F2, offset: 0x1E1F2, size: 0x8, addend: 0x0, symName: __ZNSt3__111char_traitsIcE6assignERcRKc, symObjAddr: 0x2AD4, symBinAddr: 0x1000069E8, symSize: 0x24 }
  - { offsetInCU: 0x1E223, offset: 0x1E223, size: 0x8, addend: 0x0, symName: __ZNSt3__112basic_stringIcNS_11char_traitsIcEENS_9allocatorIcEEE15__set_long_sizeB7v160006Em, symObjAddr: 0x2AF8, symBinAddr: 0x100006A0C, symSize: 0x38 }
  - { offsetInCU: 0x1E258, offset: 0x1E258, size: 0x8, addend: 0x0, symName: __ZNSt3__112basic_stringIcNS_11char_traitsIcEENS_9allocatorIcEEE16__set_short_sizeB7v160006Em, symObjAddr: 0x2B30, symBinAddr: 0x100006A44, symSize: 0x78 }
  - { offsetInCU: 0x1E28D, offset: 0x1E28D, size: 0x8, addend: 0x0, symName: __ZNSt3__112basic_stringIcNS_11char_traitsIcEENS_9allocatorIcEEE18__get_long_pointerB7v160006Ev, symObjAddr: 0x2BA8, symBinAddr: 0x100006ABC, symSize: 0x28 }
  - { offsetInCU: 0x1E2B3, offset: 0x1E2B3, size: 0x8, addend: 0x0, symName: __ZNSt3__112basic_stringIcNS_11char_traitsIcEENS_9allocatorIcEEE19__get_short_pointerB7v160006Ev, symObjAddr: 0x2BD0, symBinAddr: 0x100006AE4, symSize: 0x28 }
  - { offsetInCU: 0x1E2D9, offset: 0x1E2D9, size: 0x8, addend: 0x0, symName: __ZNSt3__114pointer_traitsIPcE10pointer_toB7v160006ERc, symObjAddr: 0x2BF8, symBinAddr: 0x100006B0C, symSize: 0x14 }
  - { offsetInCU: 0x1E2FC, offset: 0x1E2FC, size: 0x8, addend: 0x0, symName: __ZNSt3__16vectorI9OperationNS_9allocatorIS1_EEE9__end_capB7v160006Ev, symObjAddr: 0x2C0C, symBinAddr: 0x100006B20, symSize: 0x28 }
  - { offsetInCU: 0x1E322, offset: 0x1E322, size: 0x8, addend: 0x0, symName: __ZNSt3__16vectorI9OperationNS_9allocatorIS1_EEE22__construct_one_at_endB7v160006IJRKS1_EEEvDpOT_, symObjAddr: 0x2C34, symBinAddr: 0x100006B48, symSize: 0x90 }
  - { offsetInCU: 0x1E371, offset: 0x1E371, size: 0x8, addend: 0x0, symName: __ZNSt3__16vectorI9OperationNS_9allocatorIS1_EEE21__push_back_slow_pathIRKS1_EEvOT_, symObjAddr: 0x2CC4, symBinAddr: 0x100006BD8, symSize: 0xD8 }
  - { offsetInCU: 0x1E3CF, offset: 0x1E3CF, size: 0x8, addend: 0x0, symName: __ZNSt3__117__compressed_pairIP9OperationNS_9allocatorIS1_EEE5firstB7v160006Ev, symObjAddr: 0x2D9C, symBinAddr: 0x100006CB0, symSize: 0x24 }
  - { offsetInCU: 0x1E3F5, offset: 0x1E3F5, size: 0x8, addend: 0x0, symName: __ZNSt3__122__compressed_pair_elemIP9OperationLi0ELb0EE5__getB7v160006Ev, symObjAddr: 0x2DC0, symBinAddr: 0x100006CD4, symSize: 0x14 }
  - { offsetInCU: 0x1E436, offset: 0x1E436, size: 0x8, addend: 0x0, symName: __ZNSt3__16vectorI9OperationNS_9allocatorIS1_EEE21_ConstructTransactionC1B7v160006ERS4_m, symObjAddr: 0x2DD4, symBinAddr: 0x100006CE8, symSize: 0x3C }
  - { offsetInCU: 0x1E47E, offset: 0x1E47E, size: 0x8, addend: 0x0, symName: __ZNSt3__116allocator_traitsINS_9allocatorI9OperationEEE9constructB7v160006IS2_JRKS2_EvvEEvRS3_PT_DpOT0_, symObjAddr: 0x2E10, symBinAddr: 0x100006D24, symSize: 0x30 }
  - { offsetInCU: 0x1E4D2, offset: 0x1E4D2, size: 0x8, addend: 0x0, symName: __ZNSt3__16vectorI9OperationNS_9allocatorIS1_EEE7__allocB7v160006Ev, symObjAddr: 0x2E40, symBinAddr: 0x100006D54, symSize: 0x28 }
  - { offsetInCU: 0x1E4F8, offset: 0x1E4F8, size: 0x8, addend: 0x0, symName: __ZNSt3__16vectorI9OperationNS_9allocatorIS1_EEE21_ConstructTransactionD1B7v160006Ev, symObjAddr: 0x2E7C, symBinAddr: 0x100006D90, symSize: 0x2C }
  - { offsetInCU: 0x1E522, offset: 0x1E522, size: 0x8, addend: 0x0, symName: __ZNSt3__16vectorI9OperationNS_9allocatorIS1_EEE21_ConstructTransactionC2B7v160006ERS4_m, symObjAddr: 0x2EA8, symBinAddr: 0x100006DBC, symSize: 0x4C }
  - { offsetInCU: 0x1E56A, offset: 0x1E56A, size: 0x8, addend: 0x0, symName: __ZNSt3__117__compressed_pairIP9OperationNS_9allocatorIS1_EEE6secondB7v160006Ev, symObjAddr: 0x2F30, symBinAddr: 0x100006E44, symSize: 0x24 }
  - { offsetInCU: 0x1E590, offset: 0x1E590, size: 0x8, addend: 0x0, symName: __ZNSt3__122__compressed_pair_elemINS_9allocatorI9OperationEELi1ELb1EE5__getB7v160006Ev, symObjAddr: 0x2F54, symBinAddr: 0x100006E68, symSize: 0x14 }
  - { offsetInCU: 0x1E5B6, offset: 0x1E5B6, size: 0x8, addend: 0x0, symName: __ZNSt3__16vectorI9OperationNS_9allocatorIS1_EEE21_ConstructTransactionD2B7v160006Ev, symObjAddr: 0x2F68, symBinAddr: 0x100006E7C, symSize: 0x20 }
  - { offsetInCU: 0x1E5E0, offset: 0x1E5E0, size: 0x8, addend: 0x0, symName: __ZNKSt3__16vectorI9OperationNS_9allocatorIS1_EEE11__recommendB7v160006Em, symObjAddr: 0x2F88, symBinAddr: 0x100006E9C, symSize: 0xB4 }
  - { offsetInCU: 0x1E635, offset: 0x1E635, size: 0x8, addend: 0x0, symName: __ZNKSt3__16vectorI9OperationNS_9allocatorIS1_EEE4sizeB7v160006Ev, symObjAddr: 0x303C, symBinAddr: 0x100006F50, symSize: 0x28 }
  - { offsetInCU: 0x1E65B, offset: 0x1E65B, size: 0x8, addend: 0x0, symName: __ZNSt3__114__split_bufferI9OperationRNS_9allocatorIS1_EEEC1EmmS4_, symObjAddr: 0x3064, symBinAddr: 0x100006F78, symSize: 0x44 }
  - { offsetInCU: 0x1E6B1, offset: 0x1E6B1, size: 0x8, addend: 0x0, symName: __ZNSt3__114__split_bufferI9OperationRNS_9allocatorIS1_EEED1Ev, symObjAddr: 0x31C0, symBinAddr: 0x1000070D4, symSize: 0x2C }
  - { offsetInCU: 0x1E6DD, offset: 0x1E6DD, size: 0x8, addend: 0x0, symName: __ZNKSt3__16vectorI9OperationNS_9allocatorIS1_EEE8max_sizeEv, symObjAddr: 0x31EC, symBinAddr: 0x100007100, symSize: 0x60 }
  - { offsetInCU: 0x1E705, offset: 0x1E705, size: 0x8, addend: 0x0, symName: __ZNKSt3__16vectorI9OperationNS_9allocatorIS1_EEE20__throw_length_errorB7v160006Ev, symObjAddr: 0x324C, symBinAddr: 0x100007160, symSize: 0x1C }
  - { offsetInCU: 0x1E72B, offset: 0x1E72B, size: 0x8, addend: 0x0, symName: __ZNKSt3__16vectorI9OperationNS_9allocatorIS1_EEE8capacityB7v160006Ev, symObjAddr: 0x3268, symBinAddr: 0x10000717C, symSize: 0x40 }
  - { offsetInCU: 0x1E75C, offset: 0x1E75C, size: 0x8, addend: 0x0, symName: __ZNSt3__116allocator_traitsINS_9allocatorI9OperationEEE8max_sizeB7v160006IS3_vvEEmRKS3_, symObjAddr: 0x3300, symBinAddr: 0x100007214, symSize: 0x28 }
  - { offsetInCU: 0x1E787, offset: 0x1E787, size: 0x8, addend: 0x0, symName: __ZNKSt3__16vectorI9OperationNS_9allocatorIS1_EEE7__allocB7v160006Ev, symObjAddr: 0x3328, symBinAddr: 0x10000723C, symSize: 0x28 }
  - { offsetInCU: 0x1E7AD, offset: 0x1E7AD, size: 0x8, addend: 0x0, symName: __ZNSt3__114numeric_limitsIlE3maxB7v160006Ev, symObjAddr: 0x3350, symBinAddr: 0x100007264, symSize: 0x14 }
  - { offsetInCU: 0x1E7CB, offset: 0x1E7CB, size: 0x8, addend: 0x0, symName: __ZNKSt3__16__lessImmEclB7v160006ERKmS3_, symObjAddr: 0x33B8, symBinAddr: 0x1000072CC, symSize: 0x34 }
  - { offsetInCU: 0x1E80D, offset: 0x1E80D, size: 0x8, addend: 0x0, symName: __ZNSt3__114numeric_limitsImE3maxB7v160006Ev, symObjAddr: 0x33EC, symBinAddr: 0x100007300, symSize: 0x14 }
  - { offsetInCU: 0x1E821, offset: 0x1E821, size: 0x8, addend: 0x0, symName: __ZNSt3__123__libcpp_numeric_limitsImLb1EE3maxB7v160006Ev, symObjAddr: 0x3400, symBinAddr: 0x100007314, symSize: 0x8 }
  - { offsetInCU: 0x1E835, offset: 0x1E835, size: 0x8, addend: 0x0, symName: __ZNKSt3__117__compressed_pairIP9OperationNS_9allocatorIS1_EEE6secondB7v160006Ev, symObjAddr: 0x3408, symBinAddr: 0x10000731C, symSize: 0x24 }
  - { offsetInCU: 0x1E85B, offset: 0x1E85B, size: 0x8, addend: 0x0, symName: __ZNKSt3__122__compressed_pair_elemINS_9allocatorI9OperationEELi1ELb1EE5__getB7v160006Ev, symObjAddr: 0x342C, symBinAddr: 0x100007340, symSize: 0x14 }
  - { offsetInCU: 0x1E881, offset: 0x1E881, size: 0x8, addend: 0x0, symName: __ZNSt3__123__libcpp_numeric_limitsIlLb1EE3maxB7v160006Ev, symObjAddr: 0x3440, symBinAddr: 0x100007354, symSize: 0x8 }
  - { offsetInCU: 0x1E895, offset: 0x1E895, size: 0x8, addend: 0x0, symName: __ZNSt12length_errorC1B7v160006EPKc, symObjAddr: 0x34AC, symBinAddr: 0x1000073C0, symSize: 0x34 }
  - { offsetInCU: 0x1E8CD, offset: 0x1E8CD, size: 0x8, addend: 0x0, symName: __ZNSt12length_errorC2B7v160006EPKc, symObjAddr: 0x34E0, symBinAddr: 0x1000073F4, symSize: 0x4C }
  - { offsetInCU: 0x1E905, offset: 0x1E905, size: 0x8, addend: 0x0, symName: __ZNKSt3__16vectorI9OperationNS_9allocatorIS1_EEE9__end_capB7v160006Ev, symObjAddr: 0x352C, symBinAddr: 0x100007440, symSize: 0x28 }
  - { offsetInCU: 0x1E92B, offset: 0x1E92B, size: 0x8, addend: 0x0, symName: __ZNKSt3__117__compressed_pairIP9OperationNS_9allocatorIS1_EEE5firstB7v160006Ev, symObjAddr: 0x3554, symBinAddr: 0x100007468, symSize: 0x24 }
  - { offsetInCU: 0x1E951, offset: 0x1E951, size: 0x8, addend: 0x0, symName: __ZNKSt3__122__compressed_pair_elemIP9OperationLi0ELb0EE5__getB7v160006Ev, symObjAddr: 0x3578, symBinAddr: 0x10000748C, symSize: 0x14 }
  - { offsetInCU: 0x1E977, offset: 0x1E977, size: 0x8, addend: 0x0, symName: __ZNSt3__114__split_bufferI9OperationRNS_9allocatorIS1_EEEC2EmmS4_, symObjAddr: 0x35E0, symBinAddr: 0x1000074F4, symSize: 0xE0 }
  - { offsetInCU: 0x1E9EA, offset: 0x1E9EA, size: 0x8, addend: 0x0, symName: __ZNSt3__117__compressed_pairIP9OperationRNS_9allocatorIS1_EEEC1B7v160006IDnS5_EEOT_OT0_, symObjAddr: 0x36C0, symBinAddr: 0x1000075D4, symSize: 0x3C }
  - { offsetInCU: 0x1EA42, offset: 0x1EA42, size: 0x8, addend: 0x0, symName: __ZNSt3__114__split_bufferI9OperationRNS_9allocatorIS1_EEE7__allocB7v160006Ev, symObjAddr: 0x373C, symBinAddr: 0x100007650, symSize: 0x28 }
  - { offsetInCU: 0x1EA68, offset: 0x1EA68, size: 0x8, addend: 0x0, symName: __ZNSt3__114__split_bufferI9OperationRNS_9allocatorIS1_EEE9__end_capB7v160006Ev, symObjAddr: 0x3764, symBinAddr: 0x100007678, symSize: 0x28 }
  - { offsetInCU: 0x1EA8E, offset: 0x1EA8E, size: 0x8, addend: 0x0, symName: __ZNSt3__117__compressed_pairIP9OperationRNS_9allocatorIS1_EEEC2B7v160006IDnS5_EEOT_OT0_, symObjAddr: 0x378C, symBinAddr: 0x1000076A0, symSize: 0x48 }
  - { offsetInCU: 0x1EAE6, offset: 0x1EAE6, size: 0x8, addend: 0x0, symName: __ZNSt3__122__compressed_pair_elemIRNS_9allocatorI9OperationEELi1ELb0EEC2B7v160006IS4_vEEOT_, symObjAddr: 0x37D4, symBinAddr: 0x1000076E8, symSize: 0x20 }
  - { offsetInCU: 0x1EB28, offset: 0x1EB28, size: 0x8, addend: 0x0, symName: __ZNSt3__19allocatorI9OperationE8allocateB7v160006Em, symObjAddr: 0x37F4, symBinAddr: 0x100007708, symSize: 0x5C }
  - { offsetInCU: 0x1EB5C, offset: 0x1EB5C, size: 0x8, addend: 0x0, symName: __ZNSt3__117__compressed_pairIP9OperationRNS_9allocatorIS1_EEE6secondB7v160006Ev, symObjAddr: 0x3954, symBinAddr: 0x100007868, symSize: 0x28 }
  - { offsetInCU: 0x1EB82, offset: 0x1EB82, size: 0x8, addend: 0x0, symName: __ZNSt3__122__compressed_pair_elemIRNS_9allocatorI9OperationEELi1ELb0EE5__getB7v160006Ev, symObjAddr: 0x397C, symBinAddr: 0x100007890, symSize: 0x18 }
  - { offsetInCU: 0x1EBA8, offset: 0x1EBA8, size: 0x8, addend: 0x0, symName: __ZNSt3__117__compressed_pairIP9OperationRNS_9allocatorIS1_EEE5firstB7v160006Ev, symObjAddr: 0x3994, symBinAddr: 0x1000078A8, symSize: 0x24 }
  - { offsetInCU: 0x1EBCE, offset: 0x1EBCE, size: 0x8, addend: 0x0, symName: __ZNKSt3__16vectorI9OperationNS_9allocatorIS1_EEE17__annotate_deleteB7v160006Ev, symObjAddr: 0x39B8, symBinAddr: 0x1000078CC, symSize: 0xD4 }
  - { offsetInCU: 0x1EBF4, offset: 0x1EBF4, size: 0x8, addend: 0x0, symName: __ZNSt3__116reverse_iteratorIP9OperationEC1B7v160006ES2_, symObjAddr: 0x3BB8, symBinAddr: 0x100007ACC, symSize: 0x34 }
  - { offsetInCU: 0x1EC2C, offset: 0x1EC2C, size: 0x8, addend: 0x0, symName: __ZNKSt3__116reverse_iteratorIP9OperationE4baseB7v160006Ev, symObjAddr: 0x3BEC, symBinAddr: 0x100007B00, symSize: 0x18 }
  - { offsetInCU: 0x1EC52, offset: 0x1EC52, size: 0x8, addend: 0x0, symName: __ZNKSt3__16vectorI9OperationNS_9allocatorIS1_EEE14__annotate_newB7v160006Em, symObjAddr: 0x3C40, symBinAddr: 0x100007B54, symSize: 0xC8 }
  - { offsetInCU: 0x1EC87, offset: 0x1EC87, size: 0x8, addend: 0x0, symName: __ZNKSt3__16vectorI9OperationNS_9allocatorIS1_EEE31__annotate_contiguous_containerB7v160006EPKvS6_S6_S6_, symObjAddr: 0x3D18, symBinAddr: 0x100007C2C, symSize: 0x20 }
  - { offsetInCU: 0x1ECD9, offset: 0x1ECD9, size: 0x8, addend: 0x0, symName: __ZNKSt3__16vectorI9OperationNS_9allocatorIS1_EEE4dataB7v160006Ev, symObjAddr: 0x3D38, symBinAddr: 0x100007C4C, symSize: 0x28 }
  - { offsetInCU: 0x1ECFF, offset: 0x1ECFF, size: 0x8, addend: 0x0, symName: __ZNSt3__129_AllocatorDestroyRangeReverseINS_9allocatorI9OperationEENS_16reverse_iteratorIPS2_EEEC1B7v160006ERS3_RS6_S9_, symObjAddr: 0x3DAC, symBinAddr: 0x100007CC0, symSize: 0x44 }
  - { offsetInCU: 0x1ED5C, offset: 0x1ED5C, size: 0x8, addend: 0x0, symName: __ZNSt3__116allocator_traitsINS_9allocatorI9OperationEEE9constructB7v160006IS2_JS2_EvvEEvRS3_PT_DpOT0_, symObjAddr: 0x3E38, symBinAddr: 0x100007D4C, symSize: 0x30 }
  - { offsetInCU: 0x1EDB0, offset: 0x1EDB0, size: 0x8, addend: 0x0, symName: __ZNKSt3__116reverse_iteratorIP9OperationEdeB7v160006Ev, symObjAddr: 0x3E8C, symBinAddr: 0x100007DA0, symSize: 0x28 }
  - { offsetInCU: 0x1EDE4, offset: 0x1EDE4, size: 0x8, addend: 0x0, symName: __ZNSt3__116reverse_iteratorIP9OperationEppB7v160006Ev, symObjAddr: 0x3EB4, symBinAddr: 0x100007DC8, symSize: 0x20 }
  - { offsetInCU: 0x1EE0A, offset: 0x1EE0A, size: 0x8, addend: 0x0, symName: __ZNSt3__128__exception_guard_exceptionsINS_29_AllocatorDestroyRangeReverseINS_9allocatorI9OperationEENS_16reverse_iteratorIPS3_EEEEE10__completeB7v160006Ev, symObjAddr: 0x3ED4, symBinAddr: 0x100007DE8, symSize: 0x1C }
  - { offsetInCU: 0x1EE30, offset: 0x1EE30, size: 0x8, addend: 0x0, symName: __ZNSt3__128__exception_guard_exceptionsINS_29_AllocatorDestroyRangeReverseINS_9allocatorI9OperationEENS_16reverse_iteratorIPS3_EEEEED1B7v160006Ev, symObjAddr: 0x3EF0, symBinAddr: 0x100007E04, symSize: 0x2C }
  - { offsetInCU: 0x1EE5A, offset: 0x1EE5A, size: 0x8, addend: 0x0, symName: __ZNSt3__128__exception_guard_exceptionsINS_29_AllocatorDestroyRangeReverseINS_9allocatorI9OperationEENS_16reverse_iteratorIPS3_EEEEEC1B7v160006ES8_, symObjAddr: 0x3F1C, symBinAddr: 0x100007E30, symSize: 0x34 }
  - { offsetInCU: 0x1EE93, offset: 0x1EE93, size: 0x8, addend: 0x0, symName: __ZNSt3__128__exception_guard_exceptionsINS_29_AllocatorDestroyRangeReverseINS_9allocatorI9OperationEENS_16reverse_iteratorIPS3_EEEEEC2B7v160006ES8_, symObjAddr: 0x3F50, symBinAddr: 0x100007E64, symSize: 0x30 }
  - { offsetInCU: 0x1EECC, offset: 0x1EECC, size: 0x8, addend: 0x0, symName: __ZNSt3__129_AllocatorDestroyRangeReverseINS_9allocatorI9OperationEENS_16reverse_iteratorIPS2_EEEC2B7v160006ERS3_RS6_S9_, symObjAddr: 0x3F80, symBinAddr: 0x100007E94, symSize: 0x38 }
  - { offsetInCU: 0x1EF23, offset: 0x1EF23, size: 0x8, addend: 0x0, symName: __ZN9OperationC1EOS_, symObjAddr: 0x3FF4, symBinAddr: 0x100007F08, symSize: 0x34 }
  - { offsetInCU: 0x1EF58, offset: 0x1EF58, size: 0x8, addend: 0x0, symName: __ZN9OperationC2EOS_, symObjAddr: 0x4028, symBinAddr: 0x100007F3C, symSize: 0x50 }
  - { offsetInCU: 0x1EF8D, offset: 0x1EF8D, size: 0x8, addend: 0x0, symName: __ZNSt3__112basic_stringIcNS_11char_traitsIcEENS_9allocatorIcEEEC1B7v160006EOS5_, symObjAddr: 0x4078, symBinAddr: 0x100007F8C, symSize: 0x34 }
  - { offsetInCU: 0x1EFC6, offset: 0x1EFC6, size: 0x8, addend: 0x0, symName: __ZNSt3__112basic_stringIcNS_11char_traitsIcEENS_9allocatorIcEEEC2B7v160006EOS5_, symObjAddr: 0x40AC, symBinAddr: 0x100007FC0, symSize: 0x80 }
  - { offsetInCU: 0x1F005, offset: 0x1F005, size: 0x8, addend: 0x0, symName: __ZNSt3__119__to_address_helperINS_16reverse_iteratorIP9OperationEEvE6__callB7v160006ERKS4_, symObjAddr: 0x4140, symBinAddr: 0x100008054, symSize: 0x38 }
  - { offsetInCU: 0x1F028, offset: 0x1F028, size: 0x8, addend: 0x0, symName: __ZNKSt3__116reverse_iteratorIP9OperationEptB7v160006Ev, symObjAddr: 0x4178, symBinAddr: 0x10000808C, symSize: 0x2C }
  - { offsetInCU: 0x1F04E, offset: 0x1F04E, size: 0x8, addend: 0x0, symName: __ZNSt3__128__exception_guard_exceptionsINS_29_AllocatorDestroyRangeReverseINS_9allocatorI9OperationEENS_16reverse_iteratorIPS3_EEEEED2B7v160006Ev, symObjAddr: 0x4288, symBinAddr: 0x10000819C, symSize: 0x50 }
  - { offsetInCU: 0x1F078, offset: 0x1F078, size: 0x8, addend: 0x0, symName: __ZNKSt3__129_AllocatorDestroyRangeReverseINS_9allocatorI9OperationEENS_16reverse_iteratorIPS2_EEEclB7v160006Ev, symObjAddr: 0x42D8, symBinAddr: 0x1000081EC, symSize: 0xB4 }
  - { offsetInCU: 0x1F09F, offset: 0x1F09F, size: 0x8, addend: 0x0, symName: __ZNSt3__116reverse_iteratorINS0_IP9OperationEEEC1B7v160006ES3_, symObjAddr: 0x43FC, symBinAddr: 0x100008310, symSize: 0x3C }
  - { offsetInCU: 0x1F0D7, offset: 0x1F0D7, size: 0x8, addend: 0x0, symName: __ZNSt3__116allocator_traitsINS_9allocatorI9OperationEEE7destroyB7v160006IS2_vvEEvRS3_PT_, symObjAddr: 0x4498, symBinAddr: 0x1000083AC, symSize: 0x28 }
  - { offsetInCU: 0x1F111, offset: 0x1F111, size: 0x8, addend: 0x0, symName: __ZNSt3__116reverse_iteratorINS0_IP9OperationEEEppB7v160006Ev, symObjAddr: 0x44E4, symBinAddr: 0x1000083F8, symSize: 0x30 }
  - { offsetInCU: 0x1F137, offset: 0x1F137, size: 0x8, addend: 0x0, symName: __ZNKSt3__116reverse_iteratorINS0_IP9OperationEEE4baseB7v160006Ev, symObjAddr: 0x4514, symBinAddr: 0x100008428, symSize: 0x24 }
  - { offsetInCU: 0x1F163, offset: 0x1F163, size: 0x8, addend: 0x0, symName: __ZNSt3__119__to_address_helperINS_16reverse_iteratorINS1_IP9OperationEEEEvE6__callB7v160006ERKS5_, symObjAddr: 0x4580, symBinAddr: 0x100008494, symSize: 0x38 }
  - { offsetInCU: 0x1F186, offset: 0x1F186, size: 0x8, addend: 0x0, symName: __ZNKSt3__116reverse_iteratorINS0_IP9OperationEEEptB7v160006Ev, symObjAddr: 0x45B8, symBinAddr: 0x1000084CC, symSize: 0x4C }
  - { offsetInCU: 0x1F1AC, offset: 0x1F1AC, size: 0x8, addend: 0x0, symName: __ZNSt3__116reverse_iteratorIP9OperationEpLB7v160006El, symObjAddr: 0x46E0, symBinAddr: 0x1000085F4, symSize: 0x30 }
  - { offsetInCU: 0x1F1E0, offset: 0x1F1E0, size: 0x8, addend: 0x0, symName: __ZNSt3__116reverse_iteratorIP9OperationEmmB7v160006Ev, symObjAddr: 0x4710, symBinAddr: 0x100008624, symSize: 0x20 }
  - { offsetInCU: 0x1F206, offset: 0x1F206, size: 0x8, addend: 0x0, symName: __ZNSt3__116reverse_iteratorINS0_IP9OperationEEEC2B7v160006ES3_, symObjAddr: 0x4730, symBinAddr: 0x100008644, symSize: 0x2C }
  - { offsetInCU: 0x1F23E, offset: 0x1F23E, size: 0x8, addend: 0x0, symName: __ZNSt3__116reverse_iteratorIP9OperationEC2B7v160006ES2_, symObjAddr: 0x475C, symBinAddr: 0x100008670, symSize: 0x28 }
  - { offsetInCU: 0x1F276, offset: 0x1F276, size: 0x8, addend: 0x0, symName: __ZNSt3__114__split_bufferI9OperationRNS_9allocatorIS1_EEED2Ev, symObjAddr: 0x4784, symBinAddr: 0x100008698, symSize: 0x8C }
  - { offsetInCU: 0x1F2A2, offset: 0x1F2A2, size: 0x8, addend: 0x0, symName: __ZNSt3__114__split_bufferI9OperationRNS_9allocatorIS1_EEE5clearB7v160006Ev, symObjAddr: 0x4810, symBinAddr: 0x100008724, symSize: 0x28 }
  - { offsetInCU: 0x1F2C8, offset: 0x1F2C8, size: 0x8, addend: 0x0, symName: __ZNSt3__116allocator_traitsINS_9allocatorI9OperationEEE10deallocateB7v160006ERS3_PS2_m, symObjAddr: 0x4838, symBinAddr: 0x10000874C, symSize: 0x34 }
  - { offsetInCU: 0x1F30A, offset: 0x1F30A, size: 0x8, addend: 0x0, symName: __ZNKSt3__114__split_bufferI9OperationRNS_9allocatorIS1_EEE8capacityB7v160006Ev, symObjAddr: 0x486C, symBinAddr: 0x100008780, symSize: 0x40 }
  - { offsetInCU: 0x1F330, offset: 0x1F330, size: 0x8, addend: 0x0, symName: __ZNSt3__114__split_bufferI9OperationRNS_9allocatorIS1_EEE17__destruct_at_endB7v160006EPS1_, symObjAddr: 0x48AC, symBinAddr: 0x1000087C0, symSize: 0x2C }
  - { offsetInCU: 0x1F364, offset: 0x1F364, size: 0x8, addend: 0x0, symName: __ZNSt3__114__split_bufferI9OperationRNS_9allocatorIS1_EEE17__destruct_at_endB7v160006EPS1_NS_17integral_constantIbLb0EEE, symObjAddr: 0x48D8, symBinAddr: 0x1000087EC, symSize: 0x80 }
  - { offsetInCU: 0x1F3A4, offset: 0x1F3A4, size: 0x8, addend: 0x0, symName: __ZNSt3__19allocatorI9OperationE10deallocateB7v160006EPS1_m, symObjAddr: 0x4958, symBinAddr: 0x10000886C, symSize: 0x44 }
  - { offsetInCU: 0x1F3E6, offset: 0x1F3E6, size: 0x8, addend: 0x0, symName: __ZNKSt3__114__split_bufferI9OperationRNS_9allocatorIS1_EEE9__end_capB7v160006Ev, symObjAddr: 0x4AA4, symBinAddr: 0x1000089B8, symSize: 0x28 }
  - { offsetInCU: 0x1F40C, offset: 0x1F40C, size: 0x8, addend: 0x0, symName: __ZNKSt3__117__compressed_pairIP9OperationRNS_9allocatorIS1_EEE5firstB7v160006Ev, symObjAddr: 0x4ACC, symBinAddr: 0x1000089E0, symSize: 0x24 }
  - { offsetInCU: 0x1F432, offset: 0x1F432, size: 0x8, addend: 0x0, symName: __ZNSt3__118basic_stringstreamIcNS_11char_traitsIcEENS_9allocatorIcEEED2Ev, symObjAddr: 0x4AF0, symBinAddr: 0x100008A04, symSize: 0x6C }
  - { offsetInCU: 0x1F46C, offset: 0x1F46C, size: 0x8, addend: 0x0, symName: __ZThn16_NSt3__118basic_stringstreamIcNS_11char_traitsIcEENS_9allocatorIcEEED1Ev, symObjAddr: 0x4B5C, symBinAddr: 0x100008A70, symSize: 0x1C }
  - { offsetInCU: 0x1F483, offset: 0x1F483, size: 0x8, addend: 0x0, symName: __ZTv0_n24_NSt3__118basic_stringstreamIcNS_11char_traitsIcEENS_9allocatorIcEEED1Ev, symObjAddr: 0x4B78, symBinAddr: 0x100008A8C, symSize: 0x28 }
  - { offsetInCU: 0x1F49F, offset: 0x1F49F, size: 0x8, addend: 0x0, symName: __ZNSt3__115basic_stringbufIcNS_11char_traitsIcEENS_9allocatorIcEEED1Ev, symObjAddr: 0x4BA0, symBinAddr: 0x100008AB4, symSize: 0x2C }
  - { offsetInCU: 0x1F4CC, offset: 0x1F4CC, size: 0x8, addend: 0x0, symName: __ZNSt3__115basic_stringbufIcNS_11char_traitsIcEENS_9allocatorIcEEED2Ev, symObjAddr: 0x4BCC, symBinAddr: 0x100008AE0, symSize: 0x48 }
  - { offsetInCU: 0x1F505, offset: 0x1F505, size: 0x8, addend: 0x0, symName: __ZNSt3__14pairINS_12basic_stringIcNS_11char_traitsIcEENS_9allocatorIcEEEE8WorkflowEC1B7v160006IRS6_RS7_LPv0EEEOT_OT0_, symObjAddr: 0x4C14, symBinAddr: 0x100008B28, symSize: 0x3C }
  - { offsetInCU: 0x1F563, offset: 0x1F563, size: 0x8, addend: 0x0, symName: __ZNSt3__14pairINS_12basic_stringIcNS_11char_traitsIcEENS_9allocatorIcEEEE8WorkflowEC2B7v160006IRS6_RS7_LPv0EEEOT_OT0_, symObjAddr: 0x4C50, symBinAddr: 0x100008B64, symSize: 0x70 }
  - { offsetInCU: 0x1F5C1, offset: 0x1F5C1, size: 0x8, addend: 0x0, symName: __ZNSt3__14pairINS_12basic_stringIcNS_11char_traitsIcEENS_9allocatorIcEEEE8WorkflowED2Ev, symObjAddr: 0x4CC0, symBinAddr: 0x100008BD4, symSize: 0x38 }
  - { offsetInCU: 0x1F5ED, offset: 0x1F5ED, size: 0x8, addend: 0x0, symName: __ZN8WorkflowD2Ev, symObjAddr: 0x4CF8, symBinAddr: 0x100008C0C, symSize: 0x38 }
  - { offsetInCU: 0x1F619, offset: 0x1F619, size: 0x8, addend: 0x0, symName: __ZNSt3__16vectorI9OperationNS_9allocatorIS1_EEED1B7v160006Ev, symObjAddr: 0x4D30, symBinAddr: 0x100008C44, symSize: 0x2C }
  - { offsetInCU: 0x1F643, offset: 0x1F643, size: 0x8, addend: 0x0, symName: __ZNSt3__16vectorI9OperationNS_9allocatorIS1_EEED2B7v160006Ev, symObjAddr: 0x4D5C, symBinAddr: 0x100008C70, symSize: 0x44 }
  - { offsetInCU: 0x1F66D, offset: 0x1F66D, size: 0x8, addend: 0x0, symName: __ZNSt3__16vectorI9OperationNS_9allocatorIS1_EEE16__destroy_vectorC1ERS4_, symObjAddr: 0x4DA0, symBinAddr: 0x100008CB4, symSize: 0x34 }
  - { offsetInCU: 0x1F6A6, offset: 0x1F6A6, size: 0x8, addend: 0x0, symName: __ZNSt3__16vectorI9OperationNS_9allocatorIS1_EEE16__destroy_vectorclB7v160006Ev, symObjAddr: 0x4DD4, symBinAddr: 0x100008CE8, symSize: 0x9C }
  - { offsetInCU: 0x1F6CC, offset: 0x1F6CC, size: 0x8, addend: 0x0, symName: __ZNSt3__16vectorI9OperationNS_9allocatorIS1_EEE16__destroy_vectorC2ERS4_, symObjAddr: 0x4E70, symBinAddr: 0x100008D84, symSize: 0x20 }
  - { offsetInCU: 0x1F705, offset: 0x1F705, size: 0x8, addend: 0x0, symName: __ZNSt3__16vectorI9OperationNS_9allocatorIS1_EEE7__clearB7v160006Ev, symObjAddr: 0x4EA0, symBinAddr: 0x100008DB4, symSize: 0x28 }
  - { offsetInCU: 0x1F72B, offset: 0x1F72B, size: 0x8, addend: 0x0, symName: __ZNSt3__16vectorI9OperationNS_9allocatorIS1_EEE22__base_destruct_at_endB7v160006EPS1_, symObjAddr: 0x4EC8, symBinAddr: 0x100008DDC, symSize: 0x8C }
  - { offsetInCU: 0x1F76F, offset: 0x1F76F, size: 0x8, addend: 0x0, symName: __ZNSt3__16vectorI4PartNS_9allocatorIS1_EEE9__end_capB7v160006Ev, symObjAddr: 0x4F54, symBinAddr: 0x100008E68, symSize: 0x28 }
  - { offsetInCU: 0x1F79B, offset: 0x1F79B, size: 0x8, addend: 0x0, symName: __ZNSt3__16vectorI4PartNS_9allocatorIS1_EEE22__construct_one_at_endB7v160006IJRKS1_EEEvDpOT_, symObjAddr: 0x4F7C, symBinAddr: 0x100008E90, symSize: 0x90 }
  - { offsetInCU: 0x1F7EA, offset: 0x1F7EA, size: 0x8, addend: 0x0, symName: __ZNSt3__16vectorI4PartNS_9allocatorIS1_EEE21__push_back_slow_pathIRKS1_EEvOT_, symObjAddr: 0x500C, symBinAddr: 0x100008F20, symSize: 0xD8 }
  - { offsetInCU: 0x1F848, offset: 0x1F848, size: 0x8, addend: 0x0, symName: __ZNSt3__117__compressed_pairIP4PartNS_9allocatorIS1_EEE5firstB7v160006Ev, symObjAddr: 0x50E4, symBinAddr: 0x100008FF8, symSize: 0x24 }
  - { offsetInCU: 0x1F86E, offset: 0x1F86E, size: 0x8, addend: 0x0, symName: __ZNSt3__122__compressed_pair_elemIP4PartLi0ELb0EE5__getB7v160006Ev, symObjAddr: 0x5108, symBinAddr: 0x10000901C, symSize: 0x14 }
  - { offsetInCU: 0x1F8AF, offset: 0x1F8AF, size: 0x8, addend: 0x0, symName: __ZNSt3__16vectorI4PartNS_9allocatorIS1_EEE21_ConstructTransactionC1B7v160006ERS4_m, symObjAddr: 0x511C, symBinAddr: 0x100009030, symSize: 0x3C }
  - { offsetInCU: 0x1F8F7, offset: 0x1F8F7, size: 0x8, addend: 0x0, symName: __ZNSt3__116allocator_traitsINS_9allocatorI4PartEEE9constructB7v160006IS2_JRKS2_EvvEEvRS3_PT_DpOT0_, symObjAddr: 0x5158, symBinAddr: 0x10000906C, symSize: 0x30 }
  - { offsetInCU: 0x1F94B, offset: 0x1F94B, size: 0x8, addend: 0x0, symName: __ZNSt3__16vectorI4PartNS_9allocatorIS1_EEE7__allocB7v160006Ev, symObjAddr: 0x5188, symBinAddr: 0x10000909C, symSize: 0x28 }
  - { offsetInCU: 0x1F971, offset: 0x1F971, size: 0x8, addend: 0x0, symName: __ZNSt3__16vectorI4PartNS_9allocatorIS1_EEE21_ConstructTransactionD1B7v160006Ev, symObjAddr: 0x51C4, symBinAddr: 0x1000090D8, symSize: 0x2C }
  - { offsetInCU: 0x1F99B, offset: 0x1F99B, size: 0x8, addend: 0x0, symName: __ZNSt3__16vectorI4PartNS_9allocatorIS1_EEE21_ConstructTransactionC2B7v160006ERS4_m, symObjAddr: 0x51F0, symBinAddr: 0x100009104, symSize: 0x4C }
  - { offsetInCU: 0x1F9E3, offset: 0x1F9E3, size: 0x8, addend: 0x0, symName: __ZNSt3__117__compressed_pairIP4PartNS_9allocatorIS1_EEE6secondB7v160006Ev, symObjAddr: 0x5270, symBinAddr: 0x100009184, symSize: 0x24 }
  - { offsetInCU: 0x1FA09, offset: 0x1FA09, size: 0x8, addend: 0x0, symName: __ZNSt3__122__compressed_pair_elemINS_9allocatorI4PartEELi1ELb1EE5__getB7v160006Ev, symObjAddr: 0x5294, symBinAddr: 0x1000091A8, symSize: 0x14 }
  - { offsetInCU: 0x1FA2F, offset: 0x1FA2F, size: 0x8, addend: 0x0, symName: __ZNSt3__16vectorI4PartNS_9allocatorIS1_EEE21_ConstructTransactionD2B7v160006Ev, symObjAddr: 0x52A8, symBinAddr: 0x1000091BC, symSize: 0x20 }
  - { offsetInCU: 0x1FA59, offset: 0x1FA59, size: 0x8, addend: 0x0, symName: __ZNKSt3__16vectorI4PartNS_9allocatorIS1_EEE11__recommendB7v160006Em, symObjAddr: 0x52C8, symBinAddr: 0x1000091DC, symSize: 0xB4 }
  - { offsetInCU: 0x1FAAE, offset: 0x1FAAE, size: 0x8, addend: 0x0, symName: __ZNKSt3__16vectorI4PartNS_9allocatorIS1_EEE4sizeB7v160006Ev, symObjAddr: 0x537C, symBinAddr: 0x100009290, symSize: 0x28 }
  - { offsetInCU: 0x1FAD4, offset: 0x1FAD4, size: 0x8, addend: 0x0, symName: __ZNSt3__114__split_bufferI4PartRNS_9allocatorIS1_EEEC1EmmS4_, symObjAddr: 0x53A4, symBinAddr: 0x1000092B8, symSize: 0x44 }
  - { offsetInCU: 0x1FB2A, offset: 0x1FB2A, size: 0x8, addend: 0x0, symName: __ZNSt3__114__split_bufferI4PartRNS_9allocatorIS1_EEED1Ev, symObjAddr: 0x5500, symBinAddr: 0x100009414, symSize: 0x2C }
  - { offsetInCU: 0x1FB56, offset: 0x1FB56, size: 0x8, addend: 0x0, symName: __ZNKSt3__16vectorI4PartNS_9allocatorIS1_EEE8max_sizeEv, symObjAddr: 0x552C, symBinAddr: 0x100009440, symSize: 0x60 }
  - { offsetInCU: 0x1FB7E, offset: 0x1FB7E, size: 0x8, addend: 0x0, symName: __ZNKSt3__16vectorI4PartNS_9allocatorIS1_EEE20__throw_length_errorB7v160006Ev, symObjAddr: 0x558C, symBinAddr: 0x1000094A0, symSize: 0x1C }
  - { offsetInCU: 0x1FBA4, offset: 0x1FBA4, size: 0x8, addend: 0x0, symName: __ZNKSt3__16vectorI4PartNS_9allocatorIS1_EEE8capacityB7v160006Ev, symObjAddr: 0x55A8, symBinAddr: 0x1000094BC, symSize: 0x40 }
  - { offsetInCU: 0x1FBD5, offset: 0x1FBD5, size: 0x8, addend: 0x0, symName: __ZNSt3__116allocator_traitsINS_9allocatorI4PartEEE8max_sizeB7v160006IS3_vvEEmRKS3_, symObjAddr: 0x55E8, symBinAddr: 0x1000094FC, symSize: 0x28 }
  - { offsetInCU: 0x1FC00, offset: 0x1FC00, size: 0x8, addend: 0x0, symName: __ZNKSt3__16vectorI4PartNS_9allocatorIS1_EEE7__allocB7v160006Ev, symObjAddr: 0x5610, symBinAddr: 0x100009524, symSize: 0x28 }
  - { offsetInCU: 0x1FC26, offset: 0x1FC26, size: 0x8, addend: 0x0, symName: __ZNKSt3__117__compressed_pairIP4PartNS_9allocatorIS1_EEE6secondB7v160006Ev, symObjAddr: 0x5638, symBinAddr: 0x10000954C, symSize: 0x24 }
  - { offsetInCU: 0x1FC4C, offset: 0x1FC4C, size: 0x8, addend: 0x0, symName: __ZNKSt3__122__compressed_pair_elemINS_9allocatorI4PartEELi1ELb1EE5__getB7v160006Ev, symObjAddr: 0x565C, symBinAddr: 0x100009570, symSize: 0x14 }
  - { offsetInCU: 0x1FC72, offset: 0x1FC72, size: 0x8, addend: 0x0, symName: __ZNKSt3__16vectorI4PartNS_9allocatorIS1_EEE9__end_capB7v160006Ev, symObjAddr: 0x5670, symBinAddr: 0x100009584, symSize: 0x28 }
  - { offsetInCU: 0x1FC98, offset: 0x1FC98, size: 0x8, addend: 0x0, symName: __ZNKSt3__117__compressed_pairIP4PartNS_9allocatorIS1_EEE5firstB7v160006Ev, symObjAddr: 0x5698, symBinAddr: 0x1000095AC, symSize: 0x24 }
  - { offsetInCU: 0x1FCBE, offset: 0x1FCBE, size: 0x8, addend: 0x0, symName: __ZNKSt3__122__compressed_pair_elemIP4PartLi0ELb0EE5__getB7v160006Ev, symObjAddr: 0x56BC, symBinAddr: 0x1000095D0, symSize: 0x14 }
  - { offsetInCU: 0x1FCE4, offset: 0x1FCE4, size: 0x8, addend: 0x0, symName: __ZNSt3__114__split_bufferI4PartRNS_9allocatorIS1_EEEC2EmmS4_, symObjAddr: 0x56D0, symBinAddr: 0x1000095E4, symSize: 0xE0 }
  - { offsetInCU: 0x1FD57, offset: 0x1FD57, size: 0x8, addend: 0x0, symName: __ZNSt3__117__compressed_pairIP4PartRNS_9allocatorIS1_EEEC1B7v160006IDnS5_EEOT_OT0_, symObjAddr: 0x57B0, symBinAddr: 0x1000096C4, symSize: 0x3C }
  - { offsetInCU: 0x1FDAF, offset: 0x1FDAF, size: 0x8, addend: 0x0, symName: __ZNSt3__114__split_bufferI4PartRNS_9allocatorIS1_EEE7__allocB7v160006Ev, symObjAddr: 0x582C, symBinAddr: 0x100009740, symSize: 0x28 }
  - { offsetInCU: 0x1FDD5, offset: 0x1FDD5, size: 0x8, addend: 0x0, symName: __ZNSt3__114__split_bufferI4PartRNS_9allocatorIS1_EEE9__end_capB7v160006Ev, symObjAddr: 0x5854, symBinAddr: 0x100009768, symSize: 0x28 }
  - { offsetInCU: 0x1FDFB, offset: 0x1FDFB, size: 0x8, addend: 0x0, symName: __ZNSt3__117__compressed_pairIP4PartRNS_9allocatorIS1_EEEC2B7v160006IDnS5_EEOT_OT0_, symObjAddr: 0x587C, symBinAddr: 0x100009790, symSize: 0x48 }
  - { offsetInCU: 0x1FE53, offset: 0x1FE53, size: 0x8, addend: 0x0, symName: __ZNSt3__122__compressed_pair_elemIRNS_9allocatorI4PartEELi1ELb0EEC2B7v160006IS4_vEEOT_, symObjAddr: 0x58C4, symBinAddr: 0x1000097D8, symSize: 0x20 }
  - { offsetInCU: 0x1FE95, offset: 0x1FE95, size: 0x8, addend: 0x0, symName: __ZNSt3__19allocatorI4PartE8allocateB7v160006Em, symObjAddr: 0x58E4, symBinAddr: 0x1000097F8, symSize: 0x5C }
  - { offsetInCU: 0x1FEC9, offset: 0x1FEC9, size: 0x8, addend: 0x0, symName: __ZNSt3__117__compressed_pairIP4PartRNS_9allocatorIS1_EEE6secondB7v160006Ev, symObjAddr: 0x5940, symBinAddr: 0x100009854, symSize: 0x28 }
  - { offsetInCU: 0x1FEEF, offset: 0x1FEEF, size: 0x8, addend: 0x0, symName: __ZNSt3__122__compressed_pair_elemIRNS_9allocatorI4PartEELi1ELb0EE5__getB7v160006Ev, symObjAddr: 0x5968, symBinAddr: 0x10000987C, symSize: 0x18 }
  - { offsetInCU: 0x1FF15, offset: 0x1FF15, size: 0x8, addend: 0x0, symName: __ZNSt3__117__compressed_pairIP4PartRNS_9allocatorIS1_EEE5firstB7v160006Ev, symObjAddr: 0x5980, symBinAddr: 0x100009894, symSize: 0x24 }
  - { offsetInCU: 0x1FF3B, offset: 0x1FF3B, size: 0x8, addend: 0x0, symName: __ZNKSt3__16vectorI4PartNS_9allocatorIS1_EEE17__annotate_deleteB7v160006Ev, symObjAddr: 0x59A4, symBinAddr: 0x1000098B8, symSize: 0xD4 }
  - { offsetInCU: 0x1FF61, offset: 0x1FF61, size: 0x8, addend: 0x0, symName: __ZNSt3__116reverse_iteratorIP4PartEC1B7v160006ES2_, symObjAddr: 0x5AF0, symBinAddr: 0x100009A04, symSize: 0x34 }
  - { offsetInCU: 0x1FF99, offset: 0x1FF99, size: 0x8, addend: 0x0, symName: __ZNKSt3__116reverse_iteratorIP4PartE4baseB7v160006Ev, symObjAddr: 0x5B24, symBinAddr: 0x100009A38, symSize: 0x18 }
  - { offsetInCU: 0x1FFBF, offset: 0x1FFBF, size: 0x8, addend: 0x0, symName: __ZNKSt3__16vectorI4PartNS_9allocatorIS1_EEE14__annotate_newB7v160006Em, symObjAddr: 0x5B78, symBinAddr: 0x100009A8C, symSize: 0xC8 }
  - { offsetInCU: 0x1FFF4, offset: 0x1FFF4, size: 0x8, addend: 0x0, symName: __ZNKSt3__16vectorI4PartNS_9allocatorIS1_EEE31__annotate_contiguous_containerB7v160006EPKvS6_S6_S6_, symObjAddr: 0x5C50, symBinAddr: 0x100009B64, symSize: 0x20 }
  - { offsetInCU: 0x20046, offset: 0x20046, size: 0x8, addend: 0x0, symName: __ZNKSt3__16vectorI4PartNS_9allocatorIS1_EEE4dataB7v160006Ev, symObjAddr: 0x5C70, symBinAddr: 0x100009B84, symSize: 0x28 }
  - { offsetInCU: 0x20092, offset: 0x20092, size: 0x8, addend: 0x0, symName: __ZNKSt3__111__move_loopINS_17_ClassicAlgPolicyEEclB7v160006INS_16reverse_iteratorIP4PartEES7_S7_EENS_4pairIT_T1_EES9_T0_SA_, symObjAddr: 0x5F50, symBinAddr: 0x100009E64, symSize: 0xA8 }
  - { offsetInCU: 0x200FD, offset: 0x200FD, size: 0x8, addend: 0x0, symName: __ZNSt3__119__unwrap_range_implINS_16reverse_iteratorIP4PartEES4_E8__unwrapB7v160006ES4_S4_, symObjAddr: 0x6144, symBinAddr: 0x10000A058, symSize: 0x84 }
  - { offsetInCU: 0x20134, offset: 0x20134, size: 0x8, addend: 0x0, symName: __ZNSt3__14pairINS_16reverse_iteratorIP4PartEES4_EC1B7v160006IS4_S4_LPv0EEEOT_OT0_, symObjAddr: 0x61C8, symBinAddr: 0x10000A0DC, symSize: 0x3C }
  - { offsetInCU: 0x20192, offset: 0x20192, size: 0x8, addend: 0x0, symName: __ZNSt3__14pairINS_16reverse_iteratorIP4PartEES4_EC2B7v160006IS4_S4_LPv0EEEOT_OT0_, symObjAddr: 0x6204, symBinAddr: 0x10000A118, symSize: 0x34 }
  - { offsetInCU: 0x201F6, offset: 0x201F6, size: 0x8, addend: 0x0, symName: __ZNSt3__18_IterOpsINS_17_ClassicAlgPolicyEE11__iter_moveB7v160006IRNS_16reverse_iteratorIP4PartEEEENS_9enable_ifIXsr12is_referenceIDTdeclsr3stdE7declvalIRT_EEEEE5valueEDTclsr3stdE4movedeclsr3stdE7declvalISB_EEEEE4typeEOSA_, symObjAddr: 0x6280, symBinAddr: 0x10000A194, symSize: 0x28 }
  - { offsetInCU: 0x20222, offset: 0x20222, size: 0x8, addend: 0x0, symName: __ZNKSt3__116reverse_iteratorIP4PartEdeB7v160006Ev, symObjAddr: 0x62A8, symBinAddr: 0x10000A1BC, symSize: 0x28 }
  - { offsetInCU: 0x20256, offset: 0x20256, size: 0x8, addend: 0x0, symName: __ZNSt3__116reverse_iteratorIP4PartEppB7v160006Ev, symObjAddr: 0x62D0, symBinAddr: 0x10000A1E4, symSize: 0x20 }
  - { offsetInCU: 0x2027C, offset: 0x2027C, size: 0x8, addend: 0x0, symName: __ZNSt3__18_IterOpsINS_17_ClassicAlgPolicyEE25__validate_iter_referenceB7v160006IRNS_16reverse_iteratorIP4PartEEEEvv, symObjAddr: 0x62F0, symBinAddr: 0x10000A204, symSize: 0x4 }
  - { offsetInCU: 0x2029A, offset: 0x2029A, size: 0x8, addend: 0x0, symName: __ZNSt3__118__unwrap_iter_implINS_16reverse_iteratorIP4PartEELb0EE8__unwrapB7v160006ES4_, symObjAddr: 0x62F4, symBinAddr: 0x10000A208, symSize: 0x24 }
  - { offsetInCU: 0x202BD, offset: 0x202BD, size: 0x8, addend: 0x0, symName: __ZNSt3__119__unwrap_range_implINS_16reverse_iteratorIP4PartEES4_E8__rewrapB7v160006ES4_S4_, symObjAddr: 0x6318, symBinAddr: 0x10000A22C, symSize: 0x5C }
  - { offsetInCU: 0x202EE, offset: 0x202EE, size: 0x8, addend: 0x0, symName: __ZNSt3__118__unwrap_iter_implINS_16reverse_iteratorIP4PartEELb0EE8__rewrapB7v160006ES4_S4_, symObjAddr: 0x6374, symBinAddr: 0x10000A288, symSize: 0x2C }
  - { offsetInCU: 0x2031B, offset: 0x2031B, size: 0x8, addend: 0x0, symName: __ZNSt3__116reverse_iteratorIP4PartEC2B7v160006ES2_, symObjAddr: 0x63A0, symBinAddr: 0x10000A2B4, symSize: 0x28 }
  - { offsetInCU: 0x20353, offset: 0x20353, size: 0x8, addend: 0x0, symName: __ZNSt3__114__split_bufferI4PartRNS_9allocatorIS1_EEED2Ev, symObjAddr: 0x63C8, symBinAddr: 0x10000A2DC, symSize: 0x8C }
  - { offsetInCU: 0x2037F, offset: 0x2037F, size: 0x8, addend: 0x0, symName: __ZNSt3__114__split_bufferI4PartRNS_9allocatorIS1_EEE5clearB7v160006Ev, symObjAddr: 0x6454, symBinAddr: 0x10000A368, symSize: 0x28 }
  - { offsetInCU: 0x203A5, offset: 0x203A5, size: 0x8, addend: 0x0, symName: __ZNSt3__116allocator_traitsINS_9allocatorI4PartEEE10deallocateB7v160006ERS3_PS2_m, symObjAddr: 0x647C, symBinAddr: 0x10000A390, symSize: 0x34 }
  - { offsetInCU: 0x203E7, offset: 0x203E7, size: 0x8, addend: 0x0, symName: __ZNKSt3__114__split_bufferI4PartRNS_9allocatorIS1_EEE8capacityB7v160006Ev, symObjAddr: 0x64B0, symBinAddr: 0x10000A3C4, symSize: 0x40 }
  - { offsetInCU: 0x2040D, offset: 0x2040D, size: 0x8, addend: 0x0, symName: __ZNSt3__114__split_bufferI4PartRNS_9allocatorIS1_EEE17__destruct_at_endB7v160006EPS1_, symObjAddr: 0x64F0, symBinAddr: 0x10000A404, symSize: 0x2C }
  - { offsetInCU: 0x20441, offset: 0x20441, size: 0x8, addend: 0x0, symName: __ZNSt3__114__split_bufferI4PartRNS_9allocatorIS1_EEE17__destruct_at_endB7v160006EPS1_NS_17integral_constantIbLb0EEE, symObjAddr: 0x651C, symBinAddr: 0x10000A430, symSize: 0x80 }
  - { offsetInCU: 0x20481, offset: 0x20481, size: 0x8, addend: 0x0, symName: __ZNSt3__116allocator_traitsINS_9allocatorI4PartEEE7destroyB7v160006IS2_vvEEvRS3_PT_, symObjAddr: 0x659C, symBinAddr: 0x10000A4B0, symSize: 0x28 }
  - { offsetInCU: 0x204BB, offset: 0x204BB, size: 0x8, addend: 0x0, symName: __ZNSt3__19allocatorI4PartE10deallocateB7v160006EPS1_m, symObjAddr: 0x65F8, symBinAddr: 0x10000A50C, symSize: 0x44 }
  - { offsetInCU: 0x204FD, offset: 0x204FD, size: 0x8, addend: 0x0, symName: __ZNKSt3__114__split_bufferI4PartRNS_9allocatorIS1_EEE9__end_capB7v160006Ev, symObjAddr: 0x663C, symBinAddr: 0x10000A550, symSize: 0x28 }
  - { offsetInCU: 0x20523, offset: 0x20523, size: 0x8, addend: 0x0, symName: __ZNKSt3__117__compressed_pairIP4PartRNS_9allocatorIS1_EEE5firstB7v160006Ev, symObjAddr: 0x6664, symBinAddr: 0x10000A578, symSize: 0x24 }
  - { offsetInCU: 0x20549, offset: 0x20549, size: 0x8, addend: 0x0, symName: __ZNSt3__110__get_pairILm0EE3getB7v160006IKNS_12basic_stringIcNS_11char_traitsIcEENS_9allocatorIcEEEE8WorkflowEERKT_RKNS_4pairISB_T0_EE, symObjAddr: 0x6688, symBinAddr: 0x10000A59C, symSize: 0x14 }
  - { offsetInCU: 0x2057F, offset: 0x2057F, size: 0x8, addend: 0x0, symName: __ZNSt3__110__get_pairILm1EE3getB7v160006IKNS_12basic_stringIcNS_11char_traitsIcEENS_9allocatorIcEEEE8WorkflowEERKT0_RKNS_4pairIT_SB_EE, symObjAddr: 0x669C, symBinAddr: 0x10000A5B0, symSize: 0x18 }
  - { offsetInCU: 0x205B5, offset: 0x205B5, size: 0x8, addend: 0x0, symName: __ZNKSt3__16vectorI9OperationNS_9allocatorIS1_EEE5beginB7v160006Ev, symObjAddr: 0x66B4, symBinAddr: 0x10000A5C8, symSize: 0x30 }
  - { offsetInCU: 0x205DD, offset: 0x205DD, size: 0x8, addend: 0x0, symName: __ZNKSt3__16vectorI9OperationNS_9allocatorIS1_EEE3endB7v160006Ev, symObjAddr: 0x66E4, symBinAddr: 0x10000A5F8, symSize: 0x30 }
  - { offsetInCU: 0x20605, offset: 0x20605, size: 0x8, addend: 0x0, symName: __ZNKSt3__111__wrap_iterIPK9OperationEdeB7v160006Ev, symObjAddr: 0x6748, symBinAddr: 0x10000A65C, symSize: 0x18 }
  - { offsetInCU: 0x2062B, offset: 0x2062B, size: 0x8, addend: 0x0, symName: __ZN9Operation5printEv, symObjAddr: 0x6760, symBinAddr: 0x10000A674, symSize: 0xE0 }
  - { offsetInCU: 0x20651, offset: 0x20651, size: 0x8, addend: 0x0, symName: __ZNSt3__111__wrap_iterIPK9OperationEppB7v160006Ev, symObjAddr: 0x6840, symBinAddr: 0x10000A754, symSize: 0x20 }
  - { offsetInCU: 0x20677, offset: 0x20677, size: 0x8, addend: 0x0, symName: __ZNKSt3__16vectorI9OperationNS_9allocatorIS1_EEE11__make_iterB7v160006EPKS1_, symObjAddr: 0x6860, symBinAddr: 0x10000A774, symSize: 0x34 }
  - { offsetInCU: 0x206AC, offset: 0x206AC, size: 0x8, addend: 0x0, symName: __ZNSt3__111__wrap_iterIPK9OperationEC1B7v160006EPKvS3_, symObjAddr: 0x6894, symBinAddr: 0x10000A7A8, symSize: 0x3C }
  - { offsetInCU: 0x206F2, offset: 0x206F2, size: 0x8, addend: 0x0, symName: __ZNSt3__111__wrap_iterIPK9OperationEC2B7v160006EPKvS3_, symObjAddr: 0x68D0, symBinAddr: 0x10000A7E4, symSize: 0x24 }
  - { offsetInCU: 0x20738, offset: 0x20738, size: 0x8, addend: 0x0, symName: __ZNKSt3__111__wrap_iterIPK9OperationE4baseB7v160006Ev, symObjAddr: 0x693C, symBinAddr: 0x10000A850, symSize: 0x18 }
  - { offsetInCU: 0x2077F, offset: 0x2077F, size: 0x8, addend: 0x0, symName: __ZNKSt3__113basic_ostreamIcNS_11char_traitsIcEEE6sentrycvbB7v160006Ev, symObjAddr: 0x6B74, symBinAddr: 0x10000AA88, symSize: 0x1C }
  - { offsetInCU: 0x207A5, offset: 0x207A5, size: 0x8, addend: 0x0, symName: __ZNSt3__119ostreambuf_iteratorIcNS_11char_traitsIcEEEC1B7v160006ERNS_13basic_ostreamIcS2_EE, symObjAddr: 0x6DD0, symBinAddr: 0x10000ACE4, symSize: 0x34 }
  - { offsetInCU: 0x207DD, offset: 0x207DD, size: 0x8, addend: 0x0, symName: __ZNKSt3__18ios_base5flagsB7v160006Ev, symObjAddr: 0x6E04, symBinAddr: 0x10000AD18, symSize: 0x18 }
  - { offsetInCU: 0x20805, offset: 0x20805, size: 0x8, addend: 0x0, symName: __ZNKSt3__19basic_iosIcNS_11char_traitsIcEEE4fillB7v160006Ev, symObjAddr: 0x6E1C, symBinAddr: 0x10000AD30, symSize: 0x64 }
  - { offsetInCU: 0x2082D, offset: 0x2082D, size: 0x8, addend: 0x0, symName: __ZNKSt3__119ostreambuf_iteratorIcNS_11char_traitsIcEEE6failedB7v160006Ev, symObjAddr: 0x6E80, symBinAddr: 0x10000AD94, symSize: 0x24 }
  - { offsetInCU: 0x20853, offset: 0x20853, size: 0x8, addend: 0x0, symName: __ZNSt3__19basic_iosIcNS_11char_traitsIcEEE8setstateB7v160006Ej, symObjAddr: 0x6EA4, symBinAddr: 0x10000ADB8, symSize: 0x2C }
  - { offsetInCU: 0x20888, offset: 0x20888, size: 0x8, addend: 0x0, symName: __ZNKSt3__18ios_base5widthB7v160006Ev, symObjAddr: 0x6ED0, symBinAddr: 0x10000ADE4, symSize: 0x18 }
  - { offsetInCU: 0x208B0, offset: 0x208B0, size: 0x8, addend: 0x0, symName: __ZNSt3__115basic_streambufIcNS_11char_traitsIcEEE5sputnB7v160006EPKcl, symObjAddr: 0x6EE8, symBinAddr: 0x10000ADFC, symSize: 0x3C }
  - { offsetInCU: 0x208F2, offset: 0x208F2, size: 0x8, addend: 0x0, symName: __ZNSt3__112basic_stringIcNS_11char_traitsIcEENS_9allocatorIcEEEC1B7v160006Emc, symObjAddr: 0x6F24, symBinAddr: 0x10000AE38, symSize: 0x3C }
  - { offsetInCU: 0x2093A, offset: 0x2093A, size: 0x8, addend: 0x0, symName: __ZNSt3__112basic_stringIcNS_11char_traitsIcEENS_9allocatorIcEEE4dataB7v160006Ev, symObjAddr: 0x6F60, symBinAddr: 0x10000AE74, symSize: 0x28 }
  - { offsetInCU: 0x20960, offset: 0x20960, size: 0x8, addend: 0x0, symName: __ZNSt3__18ios_base5widthB7v160006El, symObjAddr: 0x6F88, symBinAddr: 0x10000AE9C, symSize: 0x2C }
  - { offsetInCU: 0x209A6, offset: 0x209A6, size: 0x8, addend: 0x0, symName: __ZNSt3__112basic_stringIcNS_11char_traitsIcEENS_9allocatorIcEEEC2B7v160006Emc, symObjAddr: 0x6FB4, symBinAddr: 0x10000AEC8, symSize: 0x54 }
  - { offsetInCU: 0x209EE, offset: 0x209EE, size: 0x8, addend: 0x0, symName: __ZNSt3__119ostreambuf_iteratorIcNS_11char_traitsIcEEEC2B7v160006ERNS_13basic_ostreamIcS2_EE, symObjAddr: 0x7008, symBinAddr: 0x10000AF1C, symSize: 0x54 }
  - { offsetInCU: 0x20A26, offset: 0x20A26, size: 0x8, addend: 0x0, symName: __ZNKSt3__19basic_iosIcNS_11char_traitsIcEEE5rdbufB7v160006Ev, symObjAddr: 0x705C, symBinAddr: 0x10000AF70, symSize: 0x24 }
  - { offsetInCU: 0x20A4E, offset: 0x20A4E, size: 0x8, addend: 0x0, symName: __ZNKSt3__18ios_base5rdbufB7v160006Ev, symObjAddr: 0x7080, symBinAddr: 0x10000AF94, symSize: 0x18 }
  - { offsetInCU: 0x20A74, offset: 0x20A74, size: 0x8, addend: 0x0, symName: __ZNSt3__111char_traitsIcE11eq_int_typeEii, symObjAddr: 0x7098, symBinAddr: 0x10000AFAC, symSize: 0x28 }
  - { offsetInCU: 0x20AA5, offset: 0x20AA5, size: 0x8, addend: 0x0, symName: __ZNSt3__111char_traitsIcE3eofEv, symObjAddr: 0x70C0, symBinAddr: 0x10000AFD4, symSize: 0x8 }
  - { offsetInCU: 0x20AB9, offset: 0x20AB9, size: 0x8, addend: 0x0, symName: __ZNKSt3__19basic_iosIcNS_11char_traitsIcEEE5widenB7v160006Ec, symObjAddr: 0x70C8, symBinAddr: 0x10000AFDC, symSize: 0x84 }
  - { offsetInCU: 0x20B27, offset: 0x20B27, size: 0x8, addend: 0x0, symName: __ZNKSt3__15ctypeIcE5widenB7v160006Ec, symObjAddr: 0x7178, symBinAddr: 0x10000B08C, symSize: 0x38 }
  - { offsetInCU: 0x20B5C, offset: 0x20B5C, size: 0x8, addend: 0x0, symName: __ZNSt3__18ios_base8setstateB7v160006Ej, symObjAddr: 0x71B0, symBinAddr: 0x10000B0C4, symSize: 0x34 }
  - { offsetInCU: 0x20B93, offset: 0x20B93, size: 0x8, addend: 0x0, symName: __ZNSt3__16vectorI4PartNS_9allocatorIS1_EEE11__make_iterB7v160006EPS1_, symObjAddr: 0x71E4, symBinAddr: 0x10000B0F8, symSize: 0x34 }
  - { offsetInCU: 0x20BC8, offset: 0x20BC8, size: 0x8, addend: 0x0, symName: __ZNSt3__111__wrap_iterIP4PartEC1B7v160006EPKvS2_, symObjAddr: 0x7218, symBinAddr: 0x10000B12C, symSize: 0x3C }
  - { offsetInCU: 0x20C0E, offset: 0x20C0E, size: 0x8, addend: 0x0, symName: __ZNSt3__111__wrap_iterIP4PartEC2B7v160006EPKvS2_, symObjAddr: 0x7254, symBinAddr: 0x10000B168, symSize: 0x24 }
  - { offsetInCU: 0x20C54, offset: 0x20C54, size: 0x8, addend: 0x0, symName: __ZNKSt3__111__wrap_iterIP4PartE4baseB7v160006Ev, symObjAddr: 0x72C0, symBinAddr: 0x10000B1D4, symSize: 0x18 }
  - { offsetInCU: 0x20C7A, offset: 0x20C7A, size: 0x8, addend: 0x0, symName: __ZNSt3__112basic_stringIcNS_11char_traitsIcEENS_9allocatorIcEEEC2B7v160006IDnEEPKc, symObjAddr: 0x72D8, symBinAddr: 0x10000B1EC, symSize: 0x60 }
  - { offsetInCU: 0x20CB8, offset: 0x20CB8, size: 0x8, addend: 0x0, symName: __ZNSt3__111char_traitsIcE6lengthEPKc, symObjAddr: 0x7338, symBinAddr: 0x10000B24C, symSize: 0x34 }
  - { offsetInCU: 0x20CDB, offset: 0x20CDB, size: 0x8, addend: 0x0, symName: __ZN8WorkflowC2ERKS_, symObjAddr: 0x7390, symBinAddr: 0x10000B2A4, symSize: 0x70 }
  - { offsetInCU: 0x20D10, offset: 0x20D10, size: 0x8, addend: 0x0, symName: __ZNSt3__16vectorI9OperationNS_9allocatorIS1_EEEC1ERKS4_, symObjAddr: 0x7400, symBinAddr: 0x10000B314, symSize: 0x34 }
  - { offsetInCU: 0x20D4B, offset: 0x20D4B, size: 0x8, addend: 0x0, symName: __ZNSt3__16vectorI9OperationNS_9allocatorIS1_EEEC2ERKS4_, symObjAddr: 0x7434, symBinAddr: 0x10000B348, symSize: 0x110 }
  - { offsetInCU: 0x20DAA, offset: 0x20DAA, size: 0x8, addend: 0x0, symName: __ZNSt3__116allocator_traitsINS_9allocatorI9OperationEEE37select_on_container_copy_constructionB7v160006IS3_vvEES3_RKS3_, symObjAddr: 0x7544, symBinAddr: 0x10000B458, symSize: 0x10 }
  - { offsetInCU: 0x20DDF, offset: 0x20DDF, size: 0x8, addend: 0x0, symName: __ZNSt3__117__compressed_pairIP9OperationNS_9allocatorIS1_EEEC1B7v160006IDnS4_EEOT_OT0_, symObjAddr: 0x7554, symBinAddr: 0x10000B468, symSize: 0x3C }
  - { offsetInCU: 0x20E37, offset: 0x20E37, size: 0x8, addend: 0x0, symName: __ZNSt3__16vectorI9OperationNS_9allocatorIS1_EEE11__vallocateB7v160006Em, symObjAddr: 0x75D0, symBinAddr: 0x10000B4E4, symSize: 0xB4 }
  - { offsetInCU: 0x20E7B, offset: 0x20E7B, size: 0x8, addend: 0x0, symName: __ZNSt3__16vectorI9OperationNS_9allocatorIS1_EEE18__construct_at_endIPS1_Li0EEEvT_S7_m, symObjAddr: 0x7684, symBinAddr: 0x10000B598, symSize: 0x8C }
  - { offsetInCU: 0x20EEE, offset: 0x20EEE, size: 0x8, addend: 0x0, symName: __ZNSt3__128__exception_guard_exceptionsINS_6vectorI9OperationNS_9allocatorIS2_EEE16__destroy_vectorEE10__completeB7v160006Ev, symObjAddr: 0x7710, symBinAddr: 0x10000B624, symSize: 0x1C }
  - { offsetInCU: 0x20F14, offset: 0x20F14, size: 0x8, addend: 0x0, symName: __ZNSt3__128__exception_guard_exceptionsINS_6vectorI9OperationNS_9allocatorIS2_EEE16__destroy_vectorEED1B7v160006Ev, symObjAddr: 0x772C, symBinAddr: 0x10000B640, symSize: 0x2C }
  - { offsetInCU: 0x20F3E, offset: 0x20F3E, size: 0x8, addend: 0x0, symName: __ZNSt3__117__compressed_pairIP9OperationNS_9allocatorIS1_EEEC2B7v160006IDnS4_EEOT_OT0_, symObjAddr: 0x7758, symBinAddr: 0x10000B66C, symSize: 0x44 }
  - { offsetInCU: 0x20F96, offset: 0x20F96, size: 0x8, addend: 0x0, symName: __ZNSt3__122__compressed_pair_elemINS_9allocatorI9OperationEELi1ELb1EEC2B7v160006IS3_vEEOT_, symObjAddr: 0x779C, symBinAddr: 0x10000B6B0, symSize: 0x18 }
  - { offsetInCU: 0x20FD8, offset: 0x20FD8, size: 0x8, addend: 0x0, symName: __ZNSt3__128__exception_guard_exceptionsINS_6vectorI9OperationNS_9allocatorIS2_EEE16__destroy_vectorEEC1B7v160006ES6_, symObjAddr: 0x77B4, symBinAddr: 0x10000B6C8, symSize: 0x34 }
  - { offsetInCU: 0x21010, offset: 0x21010, size: 0x8, addend: 0x0, symName: __ZNSt3__128__exception_guard_exceptionsINS_6vectorI9OperationNS_9allocatorIS2_EEE16__destroy_vectorEEC2B7v160006ES6_, symObjAddr: 0x77E8, symBinAddr: 0x10000B6FC, symSize: 0x24 }
  - { offsetInCU: 0x21048, offset: 0x21048, size: 0x8, addend: 0x0, symName: __ZNSt3__129_AllocatorDestroyRangeReverseINS_9allocatorI9OperationEEPS2_EC1B7v160006ERS3_RS4_S7_, symObjAddr: 0x794C, symBinAddr: 0x10000B860, symSize: 0x44 }
  - { offsetInCU: 0x2109F, offset: 0x2109F, size: 0x8, addend: 0x0, symName: __ZNSt3__116allocator_traitsINS_9allocatorI9OperationEEE9constructB7v160006IS2_JRS2_EvvEEvRS3_PT_DpOT0_, symObjAddr: 0x7990, symBinAddr: 0x10000B8A4, symSize: 0x30 }
  - { offsetInCU: 0x210F3, offset: 0x210F3, size: 0x8, addend: 0x0, symName: __ZNSt3__128__exception_guard_exceptionsINS_29_AllocatorDestroyRangeReverseINS_9allocatorI9OperationEEPS3_EEE10__completeB7v160006Ev, symObjAddr: 0x79C0, symBinAddr: 0x10000B8D4, symSize: 0x1C }
  - { offsetInCU: 0x21119, offset: 0x21119, size: 0x8, addend: 0x0, symName: __ZNSt3__128__exception_guard_exceptionsINS_29_AllocatorDestroyRangeReverseINS_9allocatorI9OperationEEPS3_EEED1B7v160006Ev, symObjAddr: 0x79DC, symBinAddr: 0x10000B8F0, symSize: 0x2C }
  - { offsetInCU: 0x21143, offset: 0x21143, size: 0x8, addend: 0x0, symName: __ZNSt3__128__exception_guard_exceptionsINS_29_AllocatorDestroyRangeReverseINS_9allocatorI9OperationEEPS3_EEEC1B7v160006ES6_, symObjAddr: 0x7A08, symBinAddr: 0x10000B91C, symSize: 0x34 }
  - { offsetInCU: 0x2117C, offset: 0x2117C, size: 0x8, addend: 0x0, symName: __ZNSt3__128__exception_guard_exceptionsINS_29_AllocatorDestroyRangeReverseINS_9allocatorI9OperationEEPS3_EEEC2B7v160006ES6_, symObjAddr: 0x7A3C, symBinAddr: 0x10000B950, symSize: 0x30 }
  - { offsetInCU: 0x211B5, offset: 0x211B5, size: 0x8, addend: 0x0, symName: __ZNSt3__129_AllocatorDestroyRangeReverseINS_9allocatorI9OperationEEPS2_EC2B7v160006ERS3_RS4_S7_, symObjAddr: 0x7A6C, symBinAddr: 0x10000B980, symSize: 0x38 }
  - { offsetInCU: 0x2120C, offset: 0x2120C, size: 0x8, addend: 0x0, symName: __ZNSt3__128__exception_guard_exceptionsINS_29_AllocatorDestroyRangeReverseINS_9allocatorI9OperationEEPS3_EEED2B7v160006Ev, symObjAddr: 0x7AE0, symBinAddr: 0x10000B9F4, symSize: 0x50 }
  - { offsetInCU: 0x21236, offset: 0x21236, size: 0x8, addend: 0x0, symName: __ZNKSt3__129_AllocatorDestroyRangeReverseINS_9allocatorI9OperationEEPS2_EclB7v160006Ev, symObjAddr: 0x7B30, symBinAddr: 0x10000BA44, symSize: 0x68 }
  - { offsetInCU: 0x2125C, offset: 0x2125C, size: 0x8, addend: 0x0, symName: __ZNSt3__128__exception_guard_exceptionsINS_6vectorI9OperationNS_9allocatorIS2_EEE16__destroy_vectorEED2B7v160006Ev, symObjAddr: 0x7C08, symBinAddr: 0x10000BB1C, symSize: 0x50 }
  - { offsetInCU: 0x21286, offset: 0x21286, size: 0x8, addend: 0x0, symName: __ZNKSt3__112basic_stringIcNS_11char_traitsIcEENS_9allocatorIcEEEcvNS_17basic_string_viewIcS2_EEB7v160006Ev, symObjAddr: 0x7D08, symBinAddr: 0x10000BC1C, symSize: 0x50 }
  - { offsetInCU: 0x212AC, offset: 0x212AC, size: 0x8, addend: 0x0, symName: __ZNSt3__117basic_string_viewIcNS_11char_traitsIcEEEC1B7v160006EPKc, symObjAddr: 0x7D58, symBinAddr: 0x10000BC6C, symSize: 0x34 }
  - { offsetInCU: 0x212E5, offset: 0x212E5, size: 0x8, addend: 0x0, symName: __ZNKSt3__117basic_string_viewIcNS_11char_traitsIcEEE4sizeB7v160006Ev, symObjAddr: 0x7D8C, symBinAddr: 0x10000BCA0, symSize: 0x18 }
  - { offsetInCU: 0x2130B, offset: 0x2130B, size: 0x8, addend: 0x0, symName: __ZNKSt3__117basic_string_viewIcNS_11char_traitsIcEEE7compareES3_, symObjAddr: 0x7DA4, symBinAddr: 0x10000BCB8, symSize: 0x13C }
  - { offsetInCU: 0x2135E, offset: 0x2135E, size: 0x8, addend: 0x0, symName: __ZNSt3__111char_traitsIcE7compareEPKcS3_m, symObjAddr: 0x7EE0, symBinAddr: 0x10000BDF4, symSize: 0x6C }
  - { offsetInCU: 0x2139D, offset: 0x2139D, size: 0x8, addend: 0x0, symName: __ZNKSt3__117basic_string_viewIcNS_11char_traitsIcEEE4dataB7v160006Ev, symObjAddr: 0x7F4C, symBinAddr: 0x10000BE60, symSize: 0x18 }
  - { offsetInCU: 0x213C3, offset: 0x213C3, size: 0x8, addend: 0x0, symName: __ZNKSt3__112basic_stringIcNS_11char_traitsIcEENS_9allocatorIcEEE4dataB7v160006Ev, symObjAddr: 0x7F98, symBinAddr: 0x10000BEAC, symSize: 0x28 }
  - { offsetInCU: 0x213E9, offset: 0x213E9, size: 0x8, addend: 0x0, symName: __ZNSt3__117basic_string_viewIcNS_11char_traitsIcEEEC1B7v160006EPKcm, symObjAddr: 0x7FC0, symBinAddr: 0x10000BED4, symSize: 0x3C }
  - { offsetInCU: 0x21431, offset: 0x21431, size: 0x8, addend: 0x0, symName: __ZNKSt3__112basic_stringIcNS_11char_traitsIcEENS_9allocatorIcEEE13__get_pointerB7v160006Ev, symObjAddr: 0x8010, symBinAddr: 0x10000BF24, symSize: 0x54 }
  - { offsetInCU: 0x21457, offset: 0x21457, size: 0x8, addend: 0x0, symName: __ZNKSt3__112basic_stringIcNS_11char_traitsIcEENS_9allocatorIcEEE18__get_long_pointerB7v160006Ev, symObjAddr: 0x8064, symBinAddr: 0x10000BF78, symSize: 0x28 }
  - { offsetInCU: 0x2147D, offset: 0x2147D, size: 0x8, addend: 0x0, symName: __ZNKSt3__112basic_stringIcNS_11char_traitsIcEENS_9allocatorIcEEE19__get_short_pointerB7v160006Ev, symObjAddr: 0x808C, symBinAddr: 0x10000BFA0, symSize: 0x28 }
  - { offsetInCU: 0x214A3, offset: 0x214A3, size: 0x8, addend: 0x0, symName: __ZNSt3__114pointer_traitsIPKcE10pointer_toB7v160006ERS1_, symObjAddr: 0x80B4, symBinAddr: 0x10000BFC8, symSize: 0x14 }
  - { offsetInCU: 0x214C6, offset: 0x214C6, size: 0x8, addend: 0x0, symName: __ZNSt3__117basic_string_viewIcNS_11char_traitsIcEEEC2B7v160006EPKcm, symObjAddr: 0x80C8, symBinAddr: 0x10000BFDC, symSize: 0x50 }
  - { offsetInCU: 0x2150E, offset: 0x2150E, size: 0x8, addend: 0x0, symName: __ZNSt3__117basic_string_viewIcNS_11char_traitsIcEEEC2B7v160006EPKc, symObjAddr: 0x8118, symBinAddr: 0x10000C02C, symSize: 0x44 }
  - { offsetInCU: 0x21547, offset: 0x21547, size: 0x8, addend: 0x0, symName: __ZNSt3__112basic_stringIcNS_11char_traitsIcEENS_9allocatorIcEEE13__move_assignB7v160006ERS5_NS_17integral_constantIbLb1EEE, symObjAddr: 0x8180, symBinAddr: 0x10000C094, symSize: 0xC8 }
  - { offsetInCU: 0x21589, offset: 0x21589, size: 0x8, addend: 0x0, symName: __ZNSt3__116allocator_traitsINS_9allocatorIcEEE10deallocateB7v160006ERS2_Pcm, symObjAddr: 0x8248, symBinAddr: 0x10000C15C, symSize: 0x34 }
  - { offsetInCU: 0x215CB, offset: 0x215CB, size: 0x8, addend: 0x0, symName: __ZNSt3__112basic_stringIcNS_11char_traitsIcEENS_9allocatorIcEEE7__allocB7v160006Ev, symObjAddr: 0x827C, symBinAddr: 0x10000C190, symSize: 0x24 }
  - { offsetInCU: 0x215F1, offset: 0x215F1, size: 0x8, addend: 0x0, symName: __ZNKSt3__112basic_stringIcNS_11char_traitsIcEENS_9allocatorIcEEE14__get_long_capB7v160006Ev, symObjAddr: 0x82A0, symBinAddr: 0x10000C1B4, symSize: 0x30 }
  - { offsetInCU: 0x21617, offset: 0x21617, size: 0x8, addend: 0x0, symName: __ZNSt3__112basic_stringIcNS_11char_traitsIcEENS_9allocatorIcEEE19__move_assign_allocB7v160006ERS5_, symObjAddr: 0x82D0, symBinAddr: 0x10000C1E4, symSize: 0x2C }
  - { offsetInCU: 0x2164C, offset: 0x2164C, size: 0x8, addend: 0x0, symName: __ZNSt3__19allocatorIcE10deallocateB7v160006EPcm, symObjAddr: 0x82FC, symBinAddr: 0x10000C210, symSize: 0x40 }
  - { offsetInCU: 0x2168E, offset: 0x2168E, size: 0x8, addend: 0x0, symName: __ZNSt3__117__compressed_pairINS_12basic_stringIcNS_11char_traitsIcEENS_9allocatorIcEEE5__repES5_E6secondB7v160006Ev, symObjAddr: 0x833C, symBinAddr: 0x10000C250, symSize: 0x24 }
  - { offsetInCU: 0x216B4, offset: 0x216B4, size: 0x8, addend: 0x0, symName: __ZNSt3__122__compressed_pair_elemINS_9allocatorIcEELi1ELb1EE5__getB7v160006Ev, symObjAddr: 0x8360, symBinAddr: 0x10000C274, symSize: 0x14 }
  - { offsetInCU: 0x216DA, offset: 0x216DA, size: 0x8, addend: 0x0, symName: __ZNSt3__112basic_stringIcNS_11char_traitsIcEENS_9allocatorIcEEE19__move_assign_allocB7v160006ERS5_NS_17integral_constantIbLb1EEE, symObjAddr: 0x8374, symBinAddr: 0x10000C288, symSize: 0x38 }
  - { offsetInCU: 0x2171A, offset: 0x2171A, size: 0x8, addend: 0x0, symName: __ZNSt3__16vectorI4PartNS_9allocatorIS1_EEED2B7v160006Ev, symObjAddr: 0x83AC, symBinAddr: 0x10000C2C0, symSize: 0x44 }
  - { offsetInCU: 0x21744, offset: 0x21744, size: 0x8, addend: 0x0, symName: __ZNSt3__16vectorI4PartNS_9allocatorIS1_EEE16__destroy_vectorC1ERS4_, symObjAddr: 0x83F0, symBinAddr: 0x10000C304, symSize: 0x34 }
  - { offsetInCU: 0x2177D, offset: 0x2177D, size: 0x8, addend: 0x0, symName: __ZNSt3__16vectorI4PartNS_9allocatorIS1_EEE16__destroy_vectorclB7v160006Ev, symObjAddr: 0x8424, symBinAddr: 0x10000C338, symSize: 0x9C }
  - { offsetInCU: 0x217A3, offset: 0x217A3, size: 0x8, addend: 0x0, symName: __ZNSt3__16vectorI4PartNS_9allocatorIS1_EEE16__destroy_vectorC2ERS4_, symObjAddr: 0x84C0, symBinAddr: 0x10000C3D4, symSize: 0x20 }
  - { offsetInCU: 0x217DC, offset: 0x217DC, size: 0x8, addend: 0x0, symName: __ZNSt3__16vectorI4PartNS_9allocatorIS1_EEE7__clearB7v160006Ev, symObjAddr: 0x84F0, symBinAddr: 0x10000C404, symSize: 0x28 }
  - { offsetInCU: 0x21802, offset: 0x21802, size: 0x8, addend: 0x0, symName: __ZNSt3__16vectorI4PartNS_9allocatorIS1_EEE22__base_destruct_at_endB7v160006EPS1_, symObjAddr: 0x8518, symBinAddr: 0x10000C42C, symSize: 0x8C }
  - { offsetInCU: 0x21846, offset: 0x21846, size: 0x8, addend: 0x0, symName: __ZNSt3__114basic_ifstreamIcNS_11char_traitsIcEEED2Ev, symObjAddr: 0x85A4, symBinAddr: 0x10000C4B8, symSize: 0x64 }
  - { offsetInCU: 0x21880, offset: 0x21880, size: 0x8, addend: 0x0, symName: __ZTv0_n24_NSt3__114basic_ifstreamIcNS_11char_traitsIcEEED1Ev, symObjAddr: 0x8608, symBinAddr: 0x10000C51C, symSize: 0x28 }
  - { offsetInCU: 0x21897, offset: 0x21897, size: 0x8, addend: 0x0, symName: __ZNSt3__19basic_iosIcNS_11char_traitsIcEEEC2B7v160006Ev, symObjAddr: 0x8630, symBinAddr: 0x10000C544, symSize: 0x44 }
  - { offsetInCU: 0x218C1, offset: 0x218C1, size: 0x8, addend: 0x0, symName: __ZNSt3__113basic_istreamIcNS_11char_traitsIcEEEC2B7v160006EPNS_15basic_streambufIcS2_EE, symObjAddr: 0x8674, symBinAddr: 0x10000C588, symSize: 0x64 }
  - { offsetInCU: 0x21906, offset: 0x21906, size: 0x8, addend: 0x0, symName: __ZNSt3__18ios_baseC2B7v160006Ev, symObjAddr: 0x86D8, symBinAddr: 0x10000C5EC, symSize: 0x24 }
  - { offsetInCU: 0x21930, offset: 0x21930, size: 0x8, addend: 0x0, symName: __ZNSt3__19basic_iosIcNS_11char_traitsIcEEE4initB7v160006EPNS_15basic_streambufIcS2_EE, symObjAddr: 0x86FC, symBinAddr: 0x10000C610, symSize: 0x44 }
  - { offsetInCU: 0x21967, offset: 0x21967, size: 0x8, addend: 0x0, symName: __ZNSt3__13mapINS_12basic_stringIcNS_11char_traitsIcEENS_9allocatorIcEEEE8WorkflowNS_4lessIS6_EENS4_INS_4pairIKS6_S7_EEEEEC2B7v160006Ev, symObjAddr: 0x8740, symBinAddr: 0x10000C654, symSize: 0x40 }
  - { offsetInCU: 0x21991, offset: 0x21991, size: 0x8, addend: 0x0, symName: __ZNSt3__119__map_value_compareINS_12basic_stringIcNS_11char_traitsIcEENS_9allocatorIcEEEENS_12__value_typeIS6_8WorkflowEENS_4lessIS6_EELb1EEC1B7v160006ESB_, symObjAddr: 0x8780, symBinAddr: 0x10000C694, symSize: 0x2C }
  - { offsetInCU: 0x219CA, offset: 0x219CA, size: 0x8, addend: 0x0, symName: __ZNSt3__16__treeINS_12__value_typeINS_12basic_stringIcNS_11char_traitsIcEENS_9allocatorIcEEEE8WorkflowEENS_19__map_value_compareIS7_S9_NS_4lessIS7_EELb1EEENS5_IS9_EEEC1ERKSD_, symObjAddr: 0x87AC, symBinAddr: 0x10000C6C0, symSize: 0x34 }
  - { offsetInCU: 0x21A05, offset: 0x21A05, size: 0x8, addend: 0x0, symName: __ZNSt3__119__map_value_compareINS_12basic_stringIcNS_11char_traitsIcEENS_9allocatorIcEEEENS_12__value_typeIS6_8WorkflowEENS_4lessIS6_EELb1EEC2B7v160006ESB_, symObjAddr: 0x87E0, symBinAddr: 0x10000C6F4, symSize: 0x14 }
  - { offsetInCU: 0x21A3E, offset: 0x21A3E, size: 0x8, addend: 0x0, symName: __ZNSt3__16__treeINS_12__value_typeINS_12basic_stringIcNS_11char_traitsIcEENS_9allocatorIcEEEE8WorkflowEENS_19__map_value_compareIS7_S9_NS_4lessIS7_EELb1EEENS5_IS9_EEEC2ERKSD_, symObjAddr: 0x87F4, symBinAddr: 0x10000C708, symSize: 0x7C }
  - { offsetInCU: 0x21A79, offset: 0x21A79, size: 0x8, addend: 0x0, symName: __ZNSt3__117__compressed_pairINS_15__tree_end_nodeIPNS_16__tree_node_baseIPvEEEENS_9allocatorINS_11__tree_nodeINS_12__value_typeINS_12basic_stringIcNS_11char_traitsIcEENS7_IcEEEE8WorkflowEES3_EEEEEC1B7v160006ILb1EvEEv, symObjAddr: 0x8870, symBinAddr: 0x10000C784, symSize: 0x2C }
  - { offsetInCU: 0x21AB4, offset: 0x21AB4, size: 0x8, addend: 0x0, symName: __ZNSt3__117__compressed_pairImNS_19__map_value_compareINS_12basic_stringIcNS_11char_traitsIcEENS_9allocatorIcEEEENS_12__value_typeIS7_8WorkflowEENS_4lessIS7_EELb1EEEEC1B7v160006IiRKSD_EEOT_OT0_, symObjAddr: 0x889C, symBinAddr: 0x10000C7B0, symSize: 0x3C }
  - { offsetInCU: 0x21B0C, offset: 0x21B0C, size: 0x8, addend: 0x0, symName: __ZNSt3__16__treeINS_12__value_typeINS_12basic_stringIcNS_11char_traitsIcEENS_9allocatorIcEEEE8WorkflowEENS_19__map_value_compareIS7_S9_NS_4lessIS7_EELb1EEENS5_IS9_EEE10__end_nodeB7v160006Ev, symObjAddr: 0x88D8, symBinAddr: 0x10000C7EC, symSize: 0x2C }
  - { offsetInCU: 0x21B32, offset: 0x21B32, size: 0x8, addend: 0x0, symName: __ZNSt3__16__treeINS_12__value_typeINS_12basic_stringIcNS_11char_traitsIcEENS_9allocatorIcEEEE8WorkflowEENS_19__map_value_compareIS7_S9_NS_4lessIS7_EELb1EEENS5_IS9_EEE12__begin_nodeB7v160006Ev, symObjAddr: 0x8904, symBinAddr: 0x10000C818, symSize: 0x14 }
  - { offsetInCU: 0x21B58, offset: 0x21B58, size: 0x8, addend: 0x0, symName: __ZNSt3__117__compressed_pairINS_15__tree_end_nodeIPNS_16__tree_node_baseIPvEEEENS_9allocatorINS_11__tree_nodeINS_12__value_typeINS_12basic_stringIcNS_11char_traitsIcEENS7_IcEEEE8WorkflowEES3_EEEEEC2B7v160006ILb1EvEEv, symObjAddr: 0x8918, symBinAddr: 0x10000C82C, symSize: 0x34 }
  - { offsetInCU: 0x21B8D, offset: 0x21B8D, size: 0x8, addend: 0x0, symName: __ZNSt3__122__compressed_pair_elemINS_15__tree_end_nodeIPNS_16__tree_node_baseIPvEEEELi0ELb0EEC2B7v160006ENS_16__value_init_tagE, symObjAddr: 0x894C, symBinAddr: 0x10000C860, symSize: 0x2C }
  - { offsetInCU: 0x21BC1, offset: 0x21BC1, size: 0x8, addend: 0x0, symName: __ZNSt3__122__compressed_pair_elemINS_9allocatorINS_11__tree_nodeINS_12__value_typeINS_12basic_stringIcNS_11char_traitsIcEENS1_IcEEEE8WorkflowEEPvEEEELi1ELb1EEC2B7v160006ENS_16__value_init_tagE, symObjAddr: 0x8978, symBinAddr: 0x10000C88C, symSize: 0x2C }
  - { offsetInCU: 0x21BF5, offset: 0x21BF5, size: 0x8, addend: 0x0, symName: __ZNSt3__115__tree_end_nodeIPNS_16__tree_node_baseIPvEEEC1B7v160006Ev, symObjAddr: 0x89A4, symBinAddr: 0x10000C8B8, symSize: 0x2C }
  - { offsetInCU: 0x21C1F, offset: 0x21C1F, size: 0x8, addend: 0x0, symName: __ZNSt3__115__tree_end_nodeIPNS_16__tree_node_baseIPvEEEC2B7v160006Ev, symObjAddr: 0x89D0, symBinAddr: 0x10000C8E4, symSize: 0x18 }
  - { offsetInCU: 0x21C49, offset: 0x21C49, size: 0x8, addend: 0x0, symName: __ZNSt3__19allocatorINS_11__tree_nodeINS_12__value_typeINS_12basic_stringIcNS_11char_traitsIcEENS0_IcEEEE8WorkflowEEPvEEEC2B7v160006Ev, symObjAddr: 0x89E8, symBinAddr: 0x10000C8FC, symSize: 0x2C }
  - { offsetInCU: 0x21C73, offset: 0x21C73, size: 0x8, addend: 0x0, symName: __ZNSt3__116__non_trivial_ifILb1ENS_9allocatorINS_11__tree_nodeINS_12__value_typeINS_12basic_stringIcNS_11char_traitsIcEENS1_IcEEEE8WorkflowEEPvEEEEEC2B7v160006Ev, symObjAddr: 0x8A14, symBinAddr: 0x10000C928, symSize: 0x14 }
  - { offsetInCU: 0x21C9D, offset: 0x21C9D, size: 0x8, addend: 0x0, symName: __ZNSt3__117__compressed_pairImNS_19__map_value_compareINS_12basic_stringIcNS_11char_traitsIcEENS_9allocatorIcEEEENS_12__value_typeIS7_8WorkflowEENS_4lessIS7_EELb1EEEEC2B7v160006IiRKSD_EEOT_OT0_, symObjAddr: 0x8A28, symBinAddr: 0x10000C93C, symSize: 0x44 }
  - { offsetInCU: 0x21CF5, offset: 0x21CF5, size: 0x8, addend: 0x0, symName: __ZNSt3__122__compressed_pair_elemImLi0ELb0EEC2B7v160006IivEEOT_, symObjAddr: 0x8A6C, symBinAddr: 0x10000C980, symSize: 0x24 }
  - { offsetInCU: 0x21D37, offset: 0x21D37, size: 0x8, addend: 0x0, symName: __ZNSt3__122__compressed_pair_elemINS_19__map_value_compareINS_12basic_stringIcNS_11char_traitsIcEENS_9allocatorIcEEEENS_12__value_typeIS7_8WorkflowEENS_4lessIS7_EELb1EEELi1ELb1EEC2B7v160006IRKSD_vEEOT_, symObjAddr: 0x8A90, symBinAddr: 0x10000C9A4, symSize: 0x18 }
  - { offsetInCU: 0x21D79, offset: 0x21D79, size: 0x8, addend: 0x0, symName: __ZNSt3__114pointer_traitsIPNS_15__tree_end_nodeIPNS_16__tree_node_baseIPvEEEEE10pointer_toB7v160006ERS6_, symObjAddr: 0x8AA8, symBinAddr: 0x10000C9BC, symSize: 0x14 }
  - { offsetInCU: 0x21D9C, offset: 0x21D9C, size: 0x8, addend: 0x0, symName: __ZNSt3__117__compressed_pairINS_15__tree_end_nodeIPNS_16__tree_node_baseIPvEEEENS_9allocatorINS_11__tree_nodeINS_12__value_typeINS_12basic_stringIcNS_11char_traitsIcEENS7_IcEEEE8WorkflowEES3_EEEEE5firstB7v160006Ev, symObjAddr: 0x8ABC, symBinAddr: 0x10000C9D0, symSize: 0x24 }
  - { offsetInCU: 0x21DC2, offset: 0x21DC2, size: 0x8, addend: 0x0, symName: __ZNSt3__122__compressed_pair_elemINS_15__tree_end_nodeIPNS_16__tree_node_baseIPvEEEELi0ELb0EE5__getB7v160006Ev, symObjAddr: 0x8AE0, symBinAddr: 0x10000C9F4, symSize: 0x14 }
  - { offsetInCU: 0x21DE8, offset: 0x21DE8, size: 0x8, addend: 0x0, symName: __ZNSt3__13mapINS_12basic_stringIcNS_11char_traitsIcEENS_9allocatorIcEEEE8WorkflowNS_4lessIS6_EENS4_INS_4pairIKS6_S7_EEEEED2B7v160006Ev, symObjAddr: 0x8AF4, symBinAddr: 0x10000CA08, symSize: 0x2C }
  - { offsetInCU: 0x21E12, offset: 0x21E12, size: 0x8, addend: 0x0, symName: __ZNSt3__16__treeINS_12__value_typeINS_12basic_stringIcNS_11char_traitsIcEENS_9allocatorIcEEEE8WorkflowEENS_19__map_value_compareIS7_S9_NS_4lessIS7_EELb1EEENS5_IS9_EEED1Ev, symObjAddr: 0x8B20, symBinAddr: 0x10000CA34, symSize: 0x2C }
  - { offsetInCU: 0x21E3E, offset: 0x21E3E, size: 0x8, addend: 0x0, symName: __ZNSt3__16__treeINS_12__value_typeINS_12basic_stringIcNS_11char_traitsIcEENS_9allocatorIcEEEE8WorkflowEENS_19__map_value_compareIS7_S9_NS_4lessIS7_EELb1EEENS5_IS9_EEED2Ev, symObjAddr: 0x8B4C, symBinAddr: 0x10000CA60, symSize: 0x38 }
  - { offsetInCU: 0x21E6A, offset: 0x21E6A, size: 0x8, addend: 0x0, symName: __ZNSt3__16__treeINS_12__value_typeINS_12basic_stringIcNS_11char_traitsIcEENS_9allocatorIcEEEE8WorkflowEENS_19__map_value_compareIS7_S9_NS_4lessIS7_EELb1EEENS5_IS9_EEE7destroyEPNS_11__tree_nodeIS9_PvEE, symObjAddr: 0x8B84, symBinAddr: 0x10000CA98, symSize: 0xAC }
  - { offsetInCU: 0x21EB6, offset: 0x21EB6, size: 0x8, addend: 0x0, symName: __ZNKSt3__16__treeINS_12__value_typeINS_12basic_stringIcNS_11char_traitsIcEENS_9allocatorIcEEEE8WorkflowEENS_19__map_value_compareIS7_S9_NS_4lessIS7_EELb1EEENS5_IS9_EEE6__rootB7v160006Ev, symObjAddr: 0x8C30, symBinAddr: 0x10000CB44, symSize: 0x28 }
  - { offsetInCU: 0x21EDC, offset: 0x21EDC, size: 0x8, addend: 0x0, symName: __ZNSt3__16__treeINS_12__value_typeINS_12basic_stringIcNS_11char_traitsIcEENS_9allocatorIcEEEE8WorkflowEENS_19__map_value_compareIS7_S9_NS_4lessIS7_EELb1EEENS5_IS9_EEE12__node_allocB7v160006Ev, symObjAddr: 0x8C58, symBinAddr: 0x10000CB6C, symSize: 0x28 }
  - { offsetInCU: 0x21F02, offset: 0x21F02, size: 0x8, addend: 0x0, symName: __ZNSt3__116allocator_traitsINS_9allocatorINS_11__tree_nodeINS_12__value_typeINS_12basic_stringIcNS_11char_traitsIcEENS1_IcEEEE8WorkflowEEPvEEEEE7destroyB7v160006INS_4pairIKS8_S9_EEvvEEvRSD_PT_, symObjAddr: 0x8C80, symBinAddr: 0x10000CB94, symSize: 0x28 }
  - { offsetInCU: 0x21F3C, offset: 0x21F3C, size: 0x8, addend: 0x0, symName: __ZNSt3__122__tree_key_value_typesINS_12__value_typeINS_12basic_stringIcNS_11char_traitsIcEENS_9allocatorIcEEEE8WorkflowEEE9__get_ptrB7v160006ERS9_, symObjAddr: 0x8CA8, symBinAddr: 0x10000CBBC, symSize: 0x24 }
  - { offsetInCU: 0x21F60, offset: 0x21F60, size: 0x8, addend: 0x0, symName: __ZNSt3__116allocator_traitsINS_9allocatorINS_11__tree_nodeINS_12__value_typeINS_12basic_stringIcNS_11char_traitsIcEENS1_IcEEEE8WorkflowEEPvEEEEE10deallocateB7v160006ERSD_PSC_m, symObjAddr: 0x8CCC, symBinAddr: 0x10000CBE0, symSize: 0x34 }
  - { offsetInCU: 0x21FA2, offset: 0x21FA2, size: 0x8, addend: 0x0, symName: __ZNSt3__117__compressed_pairINS_15__tree_end_nodeIPNS_16__tree_node_baseIPvEEEENS_9allocatorINS_11__tree_nodeINS_12__value_typeINS_12basic_stringIcNS_11char_traitsIcEENS7_IcEEEE8WorkflowEES3_EEEEE6secondB7v160006Ev, symObjAddr: 0x8D00, symBinAddr: 0x10000CC14, symSize: 0x24 }
  - { offsetInCU: 0x21FC8, offset: 0x21FC8, size: 0x8, addend: 0x0, symName: __ZNSt3__122__compressed_pair_elemINS_9allocatorINS_11__tree_nodeINS_12__value_typeINS_12basic_stringIcNS_11char_traitsIcEENS1_IcEEEE8WorkflowEEPvEEEELi1ELb1EE5__getB7v160006Ev, symObjAddr: 0x8D24, symBinAddr: 0x10000CC38, symSize: 0x14 }
  - { offsetInCU: 0x21FEE, offset: 0x21FEE, size: 0x8, addend: 0x0, symName: __ZNSt3__14pairIKNS_12basic_stringIcNS_11char_traitsIcEENS_9allocatorIcEEEE8WorkflowED1Ev, symObjAddr: 0x8D80, symBinAddr: 0x10000CC94, symSize: 0x2C }
  - { offsetInCU: 0x2201A, offset: 0x2201A, size: 0x8, addend: 0x0, symName: __ZNSt3__14pairIKNS_12basic_stringIcNS_11char_traitsIcEENS_9allocatorIcEEEE8WorkflowED2Ev, symObjAddr: 0x8DAC, symBinAddr: 0x10000CCC0, symSize: 0x38 }
  - { offsetInCU: 0x22046, offset: 0x22046, size: 0x8, addend: 0x0, symName: __ZNSt3__112__value_typeINS_12basic_stringIcNS_11char_traitsIcEENS_9allocatorIcEEEE8WorkflowE11__get_valueB7v160006Ev, symObjAddr: 0x8DE4, symBinAddr: 0x10000CCF8, symSize: 0x24 }
  - { offsetInCU: 0x2206C, offset: 0x2206C, size: 0x8, addend: 0x0, symName: __ZNSt3__19allocatorINS_11__tree_nodeINS_12__value_typeINS_12basic_stringIcNS_11char_traitsIcEENS0_IcEEEE8WorkflowEEPvEEE10deallocateB7v160006EPSB_m, symObjAddr: 0x8E40, symBinAddr: 0x10000CD54, symSize: 0x44 }
  - { offsetInCU: 0x220AE, offset: 0x220AE, size: 0x8, addend: 0x0, symName: __ZNKSt3__16__treeINS_12__value_typeINS_12basic_stringIcNS_11char_traitsIcEENS_9allocatorIcEEEE8WorkflowEENS_19__map_value_compareIS7_S9_NS_4lessIS7_EELb1EEENS5_IS9_EEE10__end_nodeB7v160006Ev, symObjAddr: 0x8E84, symBinAddr: 0x10000CD98, symSize: 0x2C }
  - { offsetInCU: 0x220D4, offset: 0x220D4, size: 0x8, addend: 0x0, symName: __ZNKSt3__117__compressed_pairINS_15__tree_end_nodeIPNS_16__tree_node_baseIPvEEEENS_9allocatorINS_11__tree_nodeINS_12__value_typeINS_12basic_stringIcNS_11char_traitsIcEENS7_IcEEEE8WorkflowEES3_EEEEE5firstB7v160006Ev, symObjAddr: 0x8EB0, symBinAddr: 0x10000CDC4, symSize: 0x24 }
  - { offsetInCU: 0x220FA, offset: 0x220FA, size: 0x8, addend: 0x0, symName: __ZNKSt3__122__compressed_pair_elemINS_15__tree_end_nodeIPNS_16__tree_node_baseIPvEEEELi0ELb0EE5__getB7v160006Ev, symObjAddr: 0x8ED4, symBinAddr: 0x10000CDE8, symSize: 0x14 }
  - { offsetInCU: 0x22120, offset: 0x22120, size: 0x8, addend: 0x0, symName: __ZNKSt3__19basic_iosIcNS_11char_traitsIcEEE4failB7v160006Ev, symObjAddr: 0x8EE8, symBinAddr: 0x10000CDFC, symSize: 0x28 }
  - { offsetInCU: 0x22146, offset: 0x22146, size: 0x8, addend: 0x0, symName: __ZNKSt3__18ios_base4failB7v160006Ev, symObjAddr: 0x8F10, symBinAddr: 0x10000CE24, symSize: 0x28 }
  - { offsetInCU: 0x2216E, offset: 0x2216E, size: 0x8, addend: 0x0, symName: __ZNKSt3__18ios_base3eofB7v160006Ev, symObjAddr: 0x8F38, symBinAddr: 0x10000CE4C, symSize: 0x24 }
  - { offsetInCU: 0x22196, offset: 0x22196, size: 0x8, addend: 0x0, symName: __ZNSt3__114basic_iostreamIcNS_11char_traitsIcEEEC2B7v160006EPNS_15basic_streambufIcS2_EE, symObjAddr: 0x8F5C, symBinAddr: 0x10000CE70, symSize: 0xAC }
  - { offsetInCU: 0x221DC, offset: 0x221DC, size: 0x8, addend: 0x0, symName: __ZNSt3__115basic_stringbufIcNS_11char_traitsIcEENS_9allocatorIcEEEC1B7v160006Ej, symObjAddr: 0x9008, symBinAddr: 0x10000CF1C, symSize: 0x34 }
  - { offsetInCU: 0x22214, offset: 0x22214, size: 0x8, addend: 0x0, symName: __ZNSt3__113basic_ostreamIcNS_11char_traitsIcEEEC2B7v160006Ev, symObjAddr: 0x903C, symBinAddr: 0x10000CF50, symSize: 0x34 }
  - { offsetInCU: 0x2224B, offset: 0x2224B, size: 0x8, addend: 0x0, symName: __ZNSt3__115basic_stringbufIcNS_11char_traitsIcEENS_9allocatorIcEEEC2B7v160006Ej, symObjAddr: 0x9070, symBinAddr: 0x10000CF84, symSize: 0x60 }
  - { offsetInCU: 0x222A4, offset: 0x222A4, size: 0x8, addend: 0x0, symName: __ZNKSt3__113basic_istreamIcNS_11char_traitsIcEEE6sentrycvbB7v160006Ev, symObjAddr: 0x90D0, symBinAddr: 0x10000CFE4, symSize: 0x1C }
  - { offsetInCU: 0x222CA, offset: 0x222CA, size: 0x8, addend: 0x0, symName: __ZNSt3__112basic_stringIcNS_11char_traitsIcEENS_9allocatorIcEEE5clearB7v160006Ev, symObjAddr: 0x90EC, symBinAddr: 0x10000D000, symSize: 0x88 }
  - { offsetInCU: 0x222F2, offset: 0x222F2, size: 0x8, addend: 0x0, symName: __ZNSt3__115basic_streambufIcNS_11char_traitsIcEEE6sbumpcB7v160006Ev, symObjAddr: 0x9174, symBinAddr: 0x10000D088, symSize: 0x78 }
  - { offsetInCU: 0x22318, offset: 0x22318, size: 0x8, addend: 0x0, symName: __ZNSt3__111char_traitsIcE12to_char_typeEi, symObjAddr: 0x91EC, symBinAddr: 0x10000D100, symSize: 0x18 }
  - { offsetInCU: 0x2233B, offset: 0x2233B, size: 0x8, addend: 0x0, symName: __ZNSt3__111char_traitsIcE2eqEcc, symObjAddr: 0x9204, symBinAddr: 0x10000D118, symSize: 0x28 }
  - { offsetInCU: 0x2236C, offset: 0x2236C, size: 0x8, addend: 0x0, symName: __ZNKSt3__112basic_stringIcNS_11char_traitsIcEENS_9allocatorIcEEE8max_sizeB7v160006Ev, symObjAddr: 0x922C, symBinAddr: 0x10000D140, symSize: 0xAC }
  - { offsetInCU: 0x223BE, offset: 0x223BE, size: 0x8, addend: 0x0, symName: __ZNSt3__18ios_base18__setstate_nothrowB7v160006Ej, symObjAddr: 0x92D8, symBinAddr: 0x10000D1EC, symSize: 0x64 }
  - { offsetInCU: 0x223F3, offset: 0x223F3, size: 0x8, addend: 0x0, symName: __ZNKSt3__19basic_iosIcNS_11char_traitsIcEEE10exceptionsB7v160006Ev, symObjAddr: 0x933C, symBinAddr: 0x10000D250, symSize: 0x24 }
  - { offsetInCU: 0x22419, offset: 0x22419, size: 0x8, addend: 0x0, symName: __ZNSt3__111char_traitsIcE11to_int_typeEc, symObjAddr: 0x9370, symBinAddr: 0x10000D284, symSize: 0x14 }
  - { offsetInCU: 0x22447, offset: 0x22447, size: 0x8, addend: 0x0, symName: __ZNSt3__116allocator_traitsINS_9allocatorIcEEE8max_sizeB7v160006IS2_vvEEmRKS2_, symObjAddr: 0x9384, symBinAddr: 0x10000D298, symSize: 0x28 }
  - { offsetInCU: 0x22472, offset: 0x22472, size: 0x8, addend: 0x0, symName: __ZNKSt3__112basic_stringIcNS_11char_traitsIcEENS_9allocatorIcEEE7__allocB7v160006Ev, symObjAddr: 0x93AC, symBinAddr: 0x10000D2C0, symSize: 0x24 }
  - { offsetInCU: 0x22498, offset: 0x22498, size: 0x8, addend: 0x0, symName: __ZNKSt3__117__compressed_pairINS_12basic_stringIcNS_11char_traitsIcEENS_9allocatorIcEEE5__repES5_E6secondB7v160006Ev, symObjAddr: 0x93D0, symBinAddr: 0x10000D2E4, symSize: 0x24 }
  - { offsetInCU: 0x224BE, offset: 0x224BE, size: 0x8, addend: 0x0, symName: __ZNKSt3__122__compressed_pair_elemINS_9allocatorIcEELi1ELb1EE5__getB7v160006Ev, symObjAddr: 0x93F4, symBinAddr: 0x10000D308, symSize: 0x14 }
  - { offsetInCU: 0x224E4, offset: 0x224E4, size: 0x8, addend: 0x0, symName: __ZNKSt3__18ios_base10exceptionsB7v160006Ev, symObjAddr: 0x9408, symBinAddr: 0x10000D31C, symSize: 0x18 }
  - { offsetInCU: 0x2250C, offset: 0x2250C, size: 0x8, addend: 0x0, symName: __ZNSt3__16__treeINS_12__value_typeINS_12basic_stringIcNS_11char_traitsIcEENS_9allocatorIcEEEE8WorkflowEENS_19__map_value_compareIS7_S9_NS_4lessIS7_EELb1EEENS5_IS9_EEE16__emplace_uniqueB7v160006INS_4pairIS7_S8_EEEENSH_INS_15__tree_iteratorIS9_PNS_11__tree_nodeIS9_PvEElEEbEEOT_, symObjAddr: 0x9420, symBinAddr: 0x10000D334, symSize: 0x3C }
  - { offsetInCU: 0x2254A, offset: 0x2254A, size: 0x8, addend: 0x0, symName: __ZNSt3__14pairINS_14__map_iteratorINS_15__tree_iteratorINS_12__value_typeINS_12basic_stringIcNS_11char_traitsIcEENS_9allocatorIcEEEE8WorkflowEEPNS_11__tree_nodeISB_PvEElEEEEbEC1B7v160006ISG_bLSD_0EEEONS0_IT_T0_EE, symObjAddr: 0x945C, symBinAddr: 0x10000D370, symSize: 0x34 }
  - { offsetInCU: 0x2259B, offset: 0x2259B, size: 0x8, addend: 0x0, symName: __ZNSt3__16__treeINS_12__value_typeINS_12basic_stringIcNS_11char_traitsIcEENS_9allocatorIcEEEE8WorkflowEENS_19__map_value_compareIS7_S9_NS_4lessIS7_EELb1EEENS5_IS9_EEE28__emplace_unique_extract_keyB7v160006INS_4pairIS7_S8_EEEENSH_INS_15__tree_iteratorIS9_PNS_11__tree_nodeIS9_PvEElEEbEEOT_NS_23__extract_key_first_tagE, symObjAddr: 0x9490, symBinAddr: 0x10000D3A4, symSize: 0x40 }
  - { offsetInCU: 0x225E4, offset: 0x225E4, size: 0x8, addend: 0x0, symName: __ZNSt3__16__treeINS_12__value_typeINS_12basic_stringIcNS_11char_traitsIcEENS_9allocatorIcEEEE8WorkflowEENS_19__map_value_compareIS7_S9_NS_4lessIS7_EELb1EEENS5_IS9_EEE25__emplace_unique_key_argsIS7_JNS_4pairIS7_S8_EEEEENSH_INS_15__tree_iteratorIS9_PNS_11__tree_nodeIS9_PvEElEEbEERKT_DpOT0_, symObjAddr: 0x94D0, symBinAddr: 0x10000D3E4, symSize: 0xF0 }
  - { offsetInCU: 0x22690, offset: 0x22690, size: 0x8, addend: 0x0, symName: __ZNSt3__16__treeINS_12__value_typeINS_12basic_stringIcNS_11char_traitsIcEENS_9allocatorIcEEEE8WorkflowEENS_19__map_value_compareIS7_S9_NS_4lessIS7_EELb1EEENS5_IS9_EEE12__find_equalIS7_EERPNS_16__tree_node_baseIPvEERPNS_15__tree_end_nodeISK_EERKT_, symObjAddr: 0x95C0, symBinAddr: 0x10000D4D4, symSize: 0x184 }
  - { offsetInCU: 0x226FD, offset: 0x226FD, size: 0x8, addend: 0x0, symName: __ZNSt3__16__treeINS_12__value_typeINS_12basic_stringIcNS_11char_traitsIcEENS_9allocatorIcEEEE8WorkflowEENS_19__map_value_compareIS7_S9_NS_4lessIS7_EELb1EEENS5_IS9_EEE16__construct_nodeIJNS_4pairIS7_S8_EEEEENS_10unique_ptrINS_11__tree_nodeIS9_PvEENS_22__tree_node_destructorINS5_ISM_EEEEEEDpOT_, symObjAddr: 0x9744, symBinAddr: 0x10000D658, symSize: 0x110 }
  - { offsetInCU: 0x2275E, offset: 0x2275E, size: 0x8, addend: 0x0, symName: __ZNSt3__16__treeINS_12__value_typeINS_12basic_stringIcNS_11char_traitsIcEENS_9allocatorIcEEEE8WorkflowEENS_19__map_value_compareIS7_S9_NS_4lessIS7_EELb1EEENS5_IS9_EEE16__insert_node_atEPNS_15__tree_end_nodeIPNS_16__tree_node_baseIPvEEEERSK_SK_, symObjAddr: 0x9854, symBinAddr: 0x10000D768, symSize: 0xCC }
  - { offsetInCU: 0x227B3, offset: 0x227B3, size: 0x8, addend: 0x0, symName: __ZNKSt3__110unique_ptrINS_11__tree_nodeINS_12__value_typeINS_12basic_stringIcNS_11char_traitsIcEENS_9allocatorIcEEEE8WorkflowEEPvEENS_22__tree_node_destructorINS6_ISC_EEEEE3getB7v160006Ev, symObjAddr: 0x9920, symBinAddr: 0x10000D834, symSize: 0x28 }
  - { offsetInCU: 0x227D9, offset: 0x227D9, size: 0x8, addend: 0x0, symName: __ZNSt3__110unique_ptrINS_11__tree_nodeINS_12__value_typeINS_12basic_stringIcNS_11char_traitsIcEENS_9allocatorIcEEEE8WorkflowEEPvEENS_22__tree_node_destructorINS6_ISC_EEEEE7releaseB7v160006Ev, symObjAddr: 0x9948, symBinAddr: 0x10000D85C, symSize: 0x44 }
  - { offsetInCU: 0x2280E, offset: 0x2280E, size: 0x8, addend: 0x0, symName: __ZNSt3__110unique_ptrINS_11__tree_nodeINS_12__value_typeINS_12basic_stringIcNS_11char_traitsIcEENS_9allocatorIcEEEE8WorkflowEEPvEENS_22__tree_node_destructorINS6_ISC_EEEEED1B7v160006Ev, symObjAddr: 0x998C, symBinAddr: 0x10000D8A0, symSize: 0x2C }
  - { offsetInCU: 0x22838, offset: 0x22838, size: 0x8, addend: 0x0, symName: __ZNSt3__115__tree_iteratorINS_12__value_typeINS_12basic_stringIcNS_11char_traitsIcEENS_9allocatorIcEEEE8WorkflowEEPNS_11__tree_nodeIS9_PvEElEC1B7v160006ESD_, symObjAddr: 0x99B8, symBinAddr: 0x10000D8CC, symSize: 0x34 }
  - { offsetInCU: 0x22877, offset: 0x22877, size: 0x8, addend: 0x0, symName: __ZNSt3__14pairINS_15__tree_iteratorINS_12__value_typeINS_12basic_stringIcNS_11char_traitsIcEENS_9allocatorIcEEEE8WorkflowEEPNS_11__tree_nodeISA_PvEElEEbEC1B7v160006ISF_RbLSC_0EEEOT_OT0_, symObjAddr: 0x99EC, symBinAddr: 0x10000D900, symSize: 0x3C }
  - { offsetInCU: 0x228D5, offset: 0x228D5, size: 0x8, addend: 0x0, symName: __ZNKSt3__16__treeINS_12__value_typeINS_12basic_stringIcNS_11char_traitsIcEENS_9allocatorIcEEEE8WorkflowEENS_19__map_value_compareIS7_S9_NS_4lessIS7_EELb1EEENS5_IS9_EEE10__root_ptrEv, symObjAddr: 0x9A28, symBinAddr: 0x10000D93C, symSize: 0x24 }
  - { offsetInCU: 0x228FB, offset: 0x228FB, size: 0x8, addend: 0x0, symName: __ZNSt3__16__treeINS_12__value_typeINS_12basic_stringIcNS_11char_traitsIcEENS_9allocatorIcEEEE8WorkflowEENS_19__map_value_compareIS7_S9_NS_4lessIS7_EELb1EEENS5_IS9_EEE10value_compB7v160006Ev, symObjAddr: 0x9A4C, symBinAddr: 0x10000D960, symSize: 0x28 }
  - { offsetInCU: 0x22921, offset: 0x22921, size: 0x8, addend: 0x0, symName: __ZNKSt3__119__map_value_compareINS_12basic_stringIcNS_11char_traitsIcEENS_9allocatorIcEEEENS_12__value_typeIS6_8WorkflowEENS_4lessIS6_EELb1EEclB7v160006ERKS6_RKS9_, symObjAddr: 0x9A74, symBinAddr: 0x10000D988, symSize: 0x50 }
  - { offsetInCU: 0x22965, offset: 0x22965, size: 0x8, addend: 0x0, symName: __ZNKSt3__119__map_value_compareINS_12basic_stringIcNS_11char_traitsIcEENS_9allocatorIcEEEENS_12__value_typeIS6_8WorkflowEENS_4lessIS6_EELb1EEclB7v160006ERKS9_RKS6_, symObjAddr: 0x9AC4, symBinAddr: 0x10000D9D8, symSize: 0x48 }
  - { offsetInCU: 0x229A9, offset: 0x229A9, size: 0x8, addend: 0x0, symName: __ZNSt3__117__compressed_pairImNS_19__map_value_compareINS_12basic_stringIcNS_11char_traitsIcEENS_9allocatorIcEEEENS_12__value_typeIS7_8WorkflowEENS_4lessIS7_EELb1EEEE6secondB7v160006Ev, symObjAddr: 0x9B0C, symBinAddr: 0x10000DA20, symSize: 0x24 }
  - { offsetInCU: 0x229CF, offset: 0x229CF, size: 0x8, addend: 0x0, symName: __ZNSt3__122__compressed_pair_elemINS_19__map_value_compareINS_12basic_stringIcNS_11char_traitsIcEENS_9allocatorIcEEEENS_12__value_typeIS7_8WorkflowEENS_4lessIS7_EELb1EEELi1ELb1EE5__getB7v160006Ev, symObjAddr: 0x9B30, symBinAddr: 0x10000DA44, symSize: 0x14 }
  - { offsetInCU: 0x229F5, offset: 0x229F5, size: 0x8, addend: 0x0, symName: __ZNKSt3__14lessINS_12basic_stringIcNS_11char_traitsIcEENS_9allocatorIcEEEEEclB7v160006ERKS6_S9_, symObjAddr: 0x9B44, symBinAddr: 0x10000DA58, symSize: 0x50 }
  - { offsetInCU: 0x22A39, offset: 0x22A39, size: 0x8, addend: 0x0, symName: __ZNKSt3__112__value_typeINS_12basic_stringIcNS_11char_traitsIcEENS_9allocatorIcEEEE8WorkflowE11__get_valueB7v160006Ev, symObjAddr: 0x9B94, symBinAddr: 0x10000DAA8, symSize: 0x24 }
  - { offsetInCU: 0x22A6E, offset: 0x22A6E, size: 0x8, addend: 0x0, symName: __ZNSt3__120_CmpUnspecifiedParamC1B7v160006EMS0_i, symObjAddr: 0x9C38, symBinAddr: 0x10000DB4C, symSize: 0x34 }
  - { offsetInCU: 0x22AA2, offset: 0x22AA2, size: 0x8, addend: 0x0, symName: __ZNSt3__120_CmpUnspecifiedParamC2B7v160006EMS0_i, symObjAddr: 0x9CE8, symBinAddr: 0x10000DBFC, symSize: 0x18 }
  - { offsetInCU: 0x22AD6, offset: 0x22AD6, size: 0x8, addend: 0x0, symName: __ZNSt3__116allocator_traitsINS_9allocatorINS_11__tree_nodeINS_12__value_typeINS_12basic_stringIcNS_11char_traitsIcEENS1_IcEEEE8WorkflowEEPvEEEEE8allocateB7v160006ERSD_m, symObjAddr: 0x9D38, symBinAddr: 0x10000DC4C, symSize: 0x2C }
  - { offsetInCU: 0x22B09, offset: 0x22B09, size: 0x8, addend: 0x0, symName: __ZNSt3__122__tree_node_destructorINS_9allocatorINS_11__tree_nodeINS_12__value_typeINS_12basic_stringIcNS_11char_traitsIcEENS1_IcEEEE8WorkflowEEPvEEEEEC1B7v160006ERSD_b, symObjAddr: 0x9D64, symBinAddr: 0x10000DC78, symSize: 0x48 }
  - { offsetInCU: 0x22B57, offset: 0x22B57, size: 0x8, addend: 0x0, symName: __ZNSt3__110unique_ptrINS_11__tree_nodeINS_12__value_typeINS_12basic_stringIcNS_11char_traitsIcEENS_9allocatorIcEEEE8WorkflowEEPvEENS_22__tree_node_destructorINS6_ISC_EEEEEC1B7v160006ILb1EvEEPSC_NS_16__dependent_typeINS_27__unique_ptr_deleter_sfinaeISF_EEXT_EE20__good_rval_ref_typeE, symObjAddr: 0x9DAC, symBinAddr: 0x10000DCC0, symSize: 0x3C }
  - { offsetInCU: 0x22BA8, offset: 0x22BA8, size: 0x8, addend: 0x0, symName: __ZNSt3__116allocator_traitsINS_9allocatorINS_11__tree_nodeINS_12__value_typeINS_12basic_stringIcNS_11char_traitsIcEENS1_IcEEEE8WorkflowEEPvEEEEE9constructB7v160006INS_4pairIKS8_S9_EEJNSG_IS8_S9_EEEvvEEvRSD_PT_DpOT0_, symObjAddr: 0x9DE8, symBinAddr: 0x10000DCFC, symSize: 0x30 }
  - { offsetInCU: 0x22BFC, offset: 0x22BFC, size: 0x8, addend: 0x0, symName: __ZNKSt3__110unique_ptrINS_11__tree_nodeINS_12__value_typeINS_12basic_stringIcNS_11char_traitsIcEENS_9allocatorIcEEEE8WorkflowEEPvEENS_22__tree_node_destructorINS6_ISC_EEEEEptB7v160006Ev, symObjAddr: 0x9E18, symBinAddr: 0x10000DD2C, symSize: 0x28 }
  - { offsetInCU: 0x22C22, offset: 0x22C22, size: 0x8, addend: 0x0, symName: __ZNSt3__110unique_ptrINS_11__tree_nodeINS_12__value_typeINS_12basic_stringIcNS_11char_traitsIcEENS_9allocatorIcEEEE8WorkflowEEPvEENS_22__tree_node_destructorINS6_ISC_EEEEE11get_deleterB7v160006Ev, symObjAddr: 0x9E40, symBinAddr: 0x10000DD54, symSize: 0x24 }
  - { offsetInCU: 0x22C48, offset: 0x22C48, size: 0x8, addend: 0x0, symName: __ZNSt3__19allocatorINS_11__tree_nodeINS_12__value_typeINS_12basic_stringIcNS_11char_traitsIcEENS0_IcEEEE8WorkflowEEPvEEE8allocateB7v160006Em, symObjAddr: 0x9E64, symBinAddr: 0x10000DD78, symSize: 0x5C }
  - { offsetInCU: 0x22C87, offset: 0x22C87, size: 0x8, addend: 0x0, symName: __ZNSt3__116allocator_traitsINS_9allocatorINS_11__tree_nodeINS_12__value_typeINS_12basic_stringIcNS_11char_traitsIcEENS1_IcEEEE8WorkflowEEPvEEEEE8max_sizeB7v160006ISD_vvEEmRKSD_, symObjAddr: 0x9EC0, symBinAddr: 0x10000DDD4, symSize: 0x28 }
  - { offsetInCU: 0x22CB2, offset: 0x22CB2, size: 0x8, addend: 0x0, symName: __ZNSt3__122__tree_node_destructorINS_9allocatorINS_11__tree_nodeINS_12__value_typeINS_12basic_stringIcNS_11char_traitsIcEENS1_IcEEEE8WorkflowEEPvEEEEEC2B7v160006ERSD_b, symObjAddr: 0x9EE8, symBinAddr: 0x10000DDFC, symSize: 0x38 }
  - { offsetInCU: 0x22CFA, offset: 0x22CFA, size: 0x8, addend: 0x0, symName: __ZNSt3__110unique_ptrINS_11__tree_nodeINS_12__value_typeINS_12basic_stringIcNS_11char_traitsIcEENS_9allocatorIcEEEE8WorkflowEEPvEENS_22__tree_node_destructorINS6_ISC_EEEEEC2B7v160006ILb1EvEEPSC_NS_16__dependent_typeINS_27__unique_ptr_deleter_sfinaeISF_EEXT_EE20__good_rval_ref_typeE, symObjAddr: 0x9F20, symBinAddr: 0x10000DE34, symSize: 0x48 }
  - { offsetInCU: 0x22D4B, offset: 0x22D4B, size: 0x8, addend: 0x0, symName: __ZNSt3__117__compressed_pairIPNS_11__tree_nodeINS_12__value_typeINS_12basic_stringIcNS_11char_traitsIcEENS_9allocatorIcEEEE8WorkflowEEPvEENS_22__tree_node_destructorINS6_ISC_EEEEEC1B7v160006IRSD_SG_EEOT_OT0_, symObjAddr: 0x9F68, symBinAddr: 0x10000DE7C, symSize: 0x3C }
  - { offsetInCU: 0x22DA3, offset: 0x22DA3, size: 0x8, addend: 0x0, symName: __ZNSt3__117__compressed_pairIPNS_11__tree_nodeINS_12__value_typeINS_12basic_stringIcNS_11char_traitsIcEENS_9allocatorIcEEEE8WorkflowEEPvEENS_22__tree_node_destructorINS6_ISC_EEEEEC2B7v160006IRSD_SG_EEOT_OT0_, symObjAddr: 0x9FA4, symBinAddr: 0x10000DEB8, symSize: 0x48 }
  - { offsetInCU: 0x22DFB, offset: 0x22DFB, size: 0x8, addend: 0x0, symName: __ZNSt3__122__compressed_pair_elemIPNS_11__tree_nodeINS_12__value_typeINS_12basic_stringIcNS_11char_traitsIcEENS_9allocatorIcEEEE8WorkflowEEPvEELi0ELb0EEC2B7v160006IRSD_vEEOT_, symObjAddr: 0x9FEC, symBinAddr: 0x10000DF00, symSize: 0x24 }
  - { offsetInCU: 0x22E3D, offset: 0x22E3D, size: 0x8, addend: 0x0, symName: __ZNSt3__122__compressed_pair_elemINS_22__tree_node_destructorINS_9allocatorINS_11__tree_nodeINS_12__value_typeINS_12basic_stringIcNS_11char_traitsIcEENS2_IcEEEE8WorkflowEEPvEEEEEELi1ELb0EEC2B7v160006ISF_vEEOT_, symObjAddr: 0xA010, symBinAddr: 0x10000DF24, symSize: 0x24 }
  - { offsetInCU: 0x22E7F, offset: 0x22E7F, size: 0x8, addend: 0x0, symName: __ZNSt3__14pairIKNS_12basic_stringIcNS_11char_traitsIcEENS_9allocatorIcEEEE8WorkflowEC1B7v160006IS6_S8_LPv0EEEONS0_IT_T0_EE, symObjAddr: 0xA070, symBinAddr: 0x10000DF84, symSize: 0x34 }
  - { offsetInCU: 0x22ED0, offset: 0x22ED0, size: 0x8, addend: 0x0, symName: __ZNSt3__14pairIKNS_12basic_stringIcNS_11char_traitsIcEENS_9allocatorIcEEEE8WorkflowEC2B7v160006IS6_S8_LPv0EEEONS0_IT_T0_EE, symObjAddr: 0xA0A4, symBinAddr: 0x10000DFB8, symSize: 0x48 }
  - { offsetInCU: 0x22F27, offset: 0x22F27, size: 0x8, addend: 0x0, symName: __ZN8WorkflowC1EOS_, symObjAddr: 0xA0EC, symBinAddr: 0x10000E000, symSize: 0x34 }
  - { offsetInCU: 0x22F5C, offset: 0x22F5C, size: 0x8, addend: 0x0, symName: __ZN8WorkflowC2EOS_, symObjAddr: 0xA120, symBinAddr: 0x10000E034, symSize: 0x48 }
  - { offsetInCU: 0x22F91, offset: 0x22F91, size: 0x8, addend: 0x0, symName: __ZNSt3__16vectorI9OperationNS_9allocatorIS1_EEEC1B7v160006EOS4_, symObjAddr: 0xA168, symBinAddr: 0x10000E07C, symSize: 0x34 }
  - { offsetInCU: 0x22FCC, offset: 0x22FCC, size: 0x8, addend: 0x0, symName: __ZNSt3__16vectorI9OperationNS_9allocatorIS1_EEEC2B7v160006EOS4_, symObjAddr: 0xA19C, symBinAddr: 0x10000E0B0, symSize: 0xDC }
  - { offsetInCU: 0x23007, offset: 0x23007, size: 0x8, addend: 0x0, symName: __ZNKSt3__117__compressed_pairIPNS_11__tree_nodeINS_12__value_typeINS_12basic_stringIcNS_11char_traitsIcEENS_9allocatorIcEEEE8WorkflowEEPvEENS_22__tree_node_destructorINS6_ISC_EEEEE5firstB7v160006Ev, symObjAddr: 0xA28C, symBinAddr: 0x10000E1A0, symSize: 0x24 }
  - { offsetInCU: 0x2302D, offset: 0x2302D, size: 0x8, addend: 0x0, symName: __ZNKSt3__122__compressed_pair_elemIPNS_11__tree_nodeINS_12__value_typeINS_12basic_stringIcNS_11char_traitsIcEENS_9allocatorIcEEEE8WorkflowEEPvEELi0ELb0EE5__getB7v160006Ev, symObjAddr: 0xA2B0, symBinAddr: 0x10000E1C4, symSize: 0x14 }
  - { offsetInCU: 0x23053, offset: 0x23053, size: 0x8, addend: 0x0, symName: __ZNSt3__117__compressed_pairIPNS_11__tree_nodeINS_12__value_typeINS_12basic_stringIcNS_11char_traitsIcEENS_9allocatorIcEEEE8WorkflowEEPvEENS_22__tree_node_destructorINS6_ISC_EEEEE6secondB7v160006Ev, symObjAddr: 0xA2C4, symBinAddr: 0x10000E1D8, symSize: 0x28 }
  - { offsetInCU: 0x23079, offset: 0x23079, size: 0x8, addend: 0x0, symName: __ZNSt3__122__compressed_pair_elemINS_22__tree_node_destructorINS_9allocatorINS_11__tree_nodeINS_12__value_typeINS_12basic_stringIcNS_11char_traitsIcEENS2_IcEEEE8WorkflowEEPvEEEEEELi1ELb0EE5__getB7v160006Ev, symObjAddr: 0xA2EC, symBinAddr: 0x10000E200, symSize: 0x14 }
  - { offsetInCU: 0x2309F, offset: 0x2309F, size: 0x8, addend: 0x0, symName: __ZNSt3__16__treeINS_12__value_typeINS_12basic_stringIcNS_11char_traitsIcEENS_9allocatorIcEEEE8WorkflowEENS_19__map_value_compareIS7_S9_NS_4lessIS7_EELb1EEENS5_IS9_EEE4sizeB7v160006Ev, symObjAddr: 0xA62C, symBinAddr: 0x10000E540, symSize: 0x28 }
  - { offsetInCU: 0x230C5, offset: 0x230C5, size: 0x8, addend: 0x0, symName: __ZNKSt3__116__tree_node_baseIPvE15__parent_unsafeB7v160006Ev, symObjAddr: 0xA654, symBinAddr: 0x10000E568, symSize: 0x18 }
  - { offsetInCU: 0x230EB, offset: 0x230EB, size: 0x8, addend: 0x0, symName: __ZNSt3__116__tree_node_baseIPvE12__set_parentB7v160006EPS2_, symObjAddr: 0xA83C, symBinAddr: 0x10000E750, symSize: 0x20 }
  - { offsetInCU: 0x23120, offset: 0x23120, size: 0x8, addend: 0x0, symName: __ZNSt3__117__compressed_pairImNS_19__map_value_compareINS_12basic_stringIcNS_11char_traitsIcEENS_9allocatorIcEEEENS_12__value_typeIS7_8WorkflowEENS_4lessIS7_EELb1EEEE5firstB7v160006Ev, symObjAddr: 0xA85C, symBinAddr: 0x10000E770, symSize: 0x24 }
  - { offsetInCU: 0x23146, offset: 0x23146, size: 0x8, addend: 0x0, symName: __ZNSt3__122__compressed_pair_elemImLi0ELb0EE5__getB7v160006Ev, symObjAddr: 0xA880, symBinAddr: 0x10000E794, symSize: 0x14 }
  - { offsetInCU: 0x2316C, offset: 0x2316C, size: 0x8, addend: 0x0, symName: __ZNSt3__117__compressed_pairIPNS_11__tree_nodeINS_12__value_typeINS_12basic_stringIcNS_11char_traitsIcEENS_9allocatorIcEEEE8WorkflowEEPvEENS_22__tree_node_destructorINS6_ISC_EEEEE5firstB7v160006Ev, symObjAddr: 0xA894, symBinAddr: 0x10000E7A8, symSize: 0x24 }
  - { offsetInCU: 0x23192, offset: 0x23192, size: 0x8, addend: 0x0, symName: __ZNSt3__122__compressed_pair_elemIPNS_11__tree_nodeINS_12__value_typeINS_12basic_stringIcNS_11char_traitsIcEENS_9allocatorIcEEEE8WorkflowEEPvEELi0ELb0EE5__getB7v160006Ev, symObjAddr: 0xA8B8, symBinAddr: 0x10000E7CC, symSize: 0x14 }
  - { offsetInCU: 0x231B8, offset: 0x231B8, size: 0x8, addend: 0x0, symName: __ZNSt3__110unique_ptrINS_11__tree_nodeINS_12__value_typeINS_12basic_stringIcNS_11char_traitsIcEENS_9allocatorIcEEEE8WorkflowEEPvEENS_22__tree_node_destructorINS6_ISC_EEEEED2B7v160006Ev, symObjAddr: 0xA8CC, symBinAddr: 0x10000E7E0, symSize: 0x30 }
  - { offsetInCU: 0x231E2, offset: 0x231E2, size: 0x8, addend: 0x0, symName: __ZNSt3__110unique_ptrINS_11__tree_nodeINS_12__value_typeINS_12basic_stringIcNS_11char_traitsIcEENS_9allocatorIcEEEE8WorkflowEEPvEENS_22__tree_node_destructorINS6_ISC_EEEEE5resetB7v160006EPSC_, symObjAddr: 0xA8FC, symBinAddr: 0x10000E810, symSize: 0x78 }
  - { offsetInCU: 0x23226, offset: 0x23226, size: 0x8, addend: 0x0, symName: __ZNSt3__122__tree_node_destructorINS_9allocatorINS_11__tree_nodeINS_12__value_typeINS_12basic_stringIcNS_11char_traitsIcEENS1_IcEEEE8WorkflowEEPvEEEEEclB7v160006EPSC_, symObjAddr: 0xA974, symBinAddr: 0x10000E888, symSize: 0x98 }
  - { offsetInCU: 0x2325B, offset: 0x2325B, size: 0x8, addend: 0x0, symName: __ZNSt3__115__tree_iteratorINS_12__value_typeINS_12basic_stringIcNS_11char_traitsIcEENS_9allocatorIcEEEE8WorkflowEEPNS_11__tree_nodeIS9_PvEElEC2B7v160006ESD_, symObjAddr: 0xAA0C, symBinAddr: 0x10000E920, symSize: 0x20 }
  - { offsetInCU: 0x23294, offset: 0x23294, size: 0x8, addend: 0x0, symName: __ZNSt3__14pairINS_15__tree_iteratorINS_12__value_typeINS_12basic_stringIcNS_11char_traitsIcEENS_9allocatorIcEEEE8WorkflowEEPNS_11__tree_nodeISA_PvEElEEbEC2B7v160006ISF_RbLSC_0EEEOT_OT0_, symObjAddr: 0xAA2C, symBinAddr: 0x10000E940, symSize: 0x38 }
  - { offsetInCU: 0x232F2, offset: 0x232F2, size: 0x8, addend: 0x0, symName: __ZNSt3__14pairINS_14__map_iteratorINS_15__tree_iteratorINS_12__value_typeINS_12basic_stringIcNS_11char_traitsIcEENS_9allocatorIcEEEE8WorkflowEEPNS_11__tree_nodeISB_PvEElEEEEbEC2B7v160006ISG_bLSD_0EEEONS0_IT_T0_EE, symObjAddr: 0xAA64, symBinAddr: 0x10000E978, symSize: 0x50 }
  - { offsetInCU: 0x23343, offset: 0x23343, size: 0x8, addend: 0x0, symName: __ZNSt3__114__map_iteratorINS_15__tree_iteratorINS_12__value_typeINS_12basic_stringIcNS_11char_traitsIcEENS_9allocatorIcEEEE8WorkflowEEPNS_11__tree_nodeISA_PvEElEEEC1B7v160006ESF_, symObjAddr: 0xAAB4, symBinAddr: 0x10000E9C8, symSize: 0x34 }
  - { offsetInCU: 0x2337C, offset: 0x2337C, size: 0x8, addend: 0x0, symName: __ZNSt3__114__map_iteratorINS_15__tree_iteratorINS_12__value_typeINS_12basic_stringIcNS_11char_traitsIcEENS_9allocatorIcEEEE8WorkflowEEPNS_11__tree_nodeISA_PvEElEEEC2B7v160006ESF_, symObjAddr: 0xAAE8, symBinAddr: 0x10000E9FC, symSize: 0x20 }
  - { offsetInCU: 0x233B5, offset: 0x233B5, size: 0x8, addend: 0x0, symName: __ZNSt3__16__treeINS_12__value_typeINS_12basic_stringIcNS_11char_traitsIcEENS_9allocatorIcEEEE8WorkflowEENS_19__map_value_compareIS7_S9_NS_4lessIS7_EELb1EEENS5_IS9_EEE5beginB7v160006Ev, symObjAddr: 0xAB08, symBinAddr: 0x10000EA1C, symSize: 0x34 }
  - { offsetInCU: 0x233DB, offset: 0x233DB, size: 0x8, addend: 0x0, symName: __ZNSt3__115__tree_iteratorINS_12__value_typeINS_12basic_stringIcNS_11char_traitsIcEENS_9allocatorIcEEEE8WorkflowEEPNS_11__tree_nodeIS9_PvEElEC1B7v160006EPNS_15__tree_end_nodeIPNS_16__tree_node_baseISB_EEEE, symObjAddr: 0xAB3C, symBinAddr: 0x10000EA50, symSize: 0x34 }
  - { offsetInCU: 0x23414, offset: 0x23414, size: 0x8, addend: 0x0, symName: __ZNSt3__115__tree_iteratorINS_12__value_typeINS_12basic_stringIcNS_11char_traitsIcEENS_9allocatorIcEEEE8WorkflowEEPNS_11__tree_nodeIS9_PvEElEC2B7v160006EPNS_15__tree_end_nodeIPNS_16__tree_node_baseISB_EEEE, symObjAddr: 0xAB70, symBinAddr: 0x10000EA84, symSize: 0x20 }
  - { offsetInCU: 0x2344D, offset: 0x2344D, size: 0x8, addend: 0x0, symName: __ZNSt3__16__treeINS_12__value_typeINS_12basic_stringIcNS_11char_traitsIcEENS_9allocatorIcEEEE8WorkflowEENS_19__map_value_compareIS7_S9_NS_4lessIS7_EELb1EEENS5_IS9_EEE3endB7v160006Ev, symObjAddr: 0xAB90, symBinAddr: 0x10000EAA4, symSize: 0x34 }
  - { offsetInCU: 0x23473, offset: 0x23473, size: 0x8, addend: 0x0, symName: __ZNSt3__115__tree_iteratorINS_12__value_typeINS_12basic_stringIcNS_11char_traitsIcEENS_9allocatorIcEEEE8WorkflowEEPNS_11__tree_nodeIS9_PvEElEppB7v160006Ev, symObjAddr: 0xAC28, symBinAddr: 0x10000EB3C, symSize: 0x38 }
  - { offsetInCU: 0x23499, offset: 0x23499, size: 0x8, addend: 0x0, symName: __ZNKSt3__115__tree_iteratorINS_12__value_typeINS_12basic_stringIcNS_11char_traitsIcEENS_9allocatorIcEEEE8WorkflowEEPNS_11__tree_nodeIS9_PvEElEptB7v160006Ev, symObjAddr: 0xAD20, symBinAddr: 0x10000EC34, symSize: 0x2C }
  - { offsetInCU: 0x234BF, offset: 0x234BF, size: 0x8, addend: 0x0, symName: __ZNSt3__114pointer_traitsIPNS_12__value_typeINS_12basic_stringIcNS_11char_traitsIcEENS_9allocatorIcEEEE8WorkflowEEE10pointer_toB7v160006ERS9_, symObjAddr: 0xAD4C, symBinAddr: 0x10000EC60, symSize: 0x14 }
  - { offsetInCU: 0x234E2, offset: 0x234E2, size: 0x8, addend: 0x0, symName: __ZNKSt3__115__tree_iteratorINS_12__value_typeINS_12basic_stringIcNS_11char_traitsIcEENS_9allocatorIcEEEE8WorkflowEEPNS_11__tree_nodeIS9_PvEElE8__get_npB7v160006Ev, symObjAddr: 0xAD60, symBinAddr: 0x10000EC74, symSize: 0x18 }
  - { offsetInCU: 0x23508, offset: 0x23508, size: 0x8, addend: 0x0, symName: __ZNSt3__16__treeINS_12__value_typeINS_12basic_stringIcNS_11char_traitsIcEENS_9allocatorIcEEEE8WorkflowEENS_19__map_value_compareIS7_S9_NS_4lessIS7_EELb1EEENS5_IS9_EEE4findIS7_EENS_15__tree_iteratorIS9_PNS_11__tree_nodeIS9_PvEElEERKT_, symObjAddr: 0xAD78, symBinAddr: 0x10000EC8C, symSize: 0xF8 }
  - { offsetInCU: 0x23557, offset: 0x23557, size: 0x8, addend: 0x0, symName: __ZNSt3__16__treeINS_12__value_typeINS_12basic_stringIcNS_11char_traitsIcEENS_9allocatorIcEEEE8WorkflowEENS_19__map_value_compareIS7_S9_NS_4lessIS7_EELb1EEENS5_IS9_EEE13__lower_boundIS7_EENS_15__tree_iteratorIS9_PNS_11__tree_nodeIS9_PvEElEERKT_SL_PNS_15__tree_end_nodeIPNS_16__tree_node_baseISJ_EEEE, symObjAddr: 0xAE70, symBinAddr: 0x10000ED84, symSize: 0xA4 }
  - { offsetInCU: 0x235B5, offset: 0x235B5, size: 0x8, addend: 0x0, symName: __ZNKSt3__115__tree_iteratorINS_12__value_typeINS_12basic_stringIcNS_11char_traitsIcEENS_9allocatorIcEEEE8WorkflowEEPNS_11__tree_nodeIS9_PvEElEdeB7v160006Ev, symObjAddr: 0xAF14, symBinAddr: 0x10000EE28, symSize: 0x28 }
  - { offsetInCU: 0x235DB, offset: 0x235DB, size: 0x8, addend: 0x0, symName: __ZNSt3__114pointer_traitsIPNS_4pairIKNS_12basic_stringIcNS_11char_traitsIcEENS_9allocatorIcEEEE8WorkflowEEE10pointer_toB7v160006ERSA_, symObjAddr: 0xAF3C, symBinAddr: 0x10000EE50, symSize: 0x14 }
...
