---
triple:          'arm64-apple-darwin'
binary-path:     '/Users/ivo/Coding/C++/AdventOfCode23/day11'
relocations:
  - { offsetInCU: 0xFD20, offset: 0xFD20, size: 0x8, addend: 0x0, symName: __ZNSt3__17advanceB7v160006IPNS_6vectorIcNS_9allocatorIcEEEEllvEEvRT_T0_, symObjAddr: 0x4CF0, symBinAddr: 0x100006904, symSize: 0x50 }
  - { offsetInCU: 0xFFA0, offset: 0xFFA0, size: 0x8, addend: 0x0, symName: __ZNSt3__17advanceB7v160006INS_16reverse_iteratorIPNS_6vectorIcNS_9allocatorIcEEEEEEllvEEvRT_T0_, symObjAddr: 0x5160, symBinAddr: 0x100006D74, symSize: 0x50 }
  - { offsetInCU: 0x1021A, offset: 0x1021A, size: 0x8, addend: 0x0, symName: __ZNSt3__17advanceB7v160006IPcllvEEvRT_T0_, symObjAddr: 0x6268, symBinAddr: 0x100007E7C, symSize: 0x50 }
  - { offsetInCU: 0x12164, offset: 0x12164, size: 0x8, addend: 0x0, symName: __ZNSt3__124__put_character_sequenceB7v160006IcNS_11char_traitsIcEEEERNS_13basic_ostreamIT_T0_EES7_PKS4_m, symObjAddr: 0x8CCC, symBinAddr: 0x10000A8E0, symSize: 0x1EC }
  - { offsetInCU: 0x14B17, offset: 0x14B17, size: 0x8, addend: 0x0, symName: __ZNSt3__17getlineB7v160006IcNS_11char_traitsIcEENS_9allocatorIcEEEERNS_13basic_istreamIT_T0_EES9_RNS_12basic_stringIS6_S7_T1_EE, symObjAddr: 0xD54, symBinAddr: 0x100002968, symSize: 0x5C }
  - { offsetInCU: 0x14B6F, offset: 0x14B6F, size: 0x8, addend: 0x0, symName: __ZNSt3__1lsB7v160006IcNS_11char_traitsIcEENS_9allocatorIcEEEERNS_13basic_ostreamIT_T0_EES9_RKNS_12basic_stringIS6_S7_T1_EE, symObjAddr: 0xDE0, symBinAddr: 0x1000029F4, symSize: 0x4C }
  - { offsetInCU: 0x14BC7, offset: 0x14BC7, size: 0x8, addend: 0x0, symName: __ZNSt3__1rsB7v160006IcNS_11char_traitsIcEEEERNS_13basic_istreamIT_T0_EES7_RS4_, symObjAddr: 0xE2C, symBinAddr: 0x100002A40, symSize: 0x18C }
  - { offsetInCU: 0x14C54, offset: 0x14C54, size: 0x8, addend: 0x0, symName: __ZNSt3__1neB7v160006IPNS_6vectorIcNS_9allocatorIcEEEEEEbRKNS_11__wrap_iterIT_EESA_, symObjAddr: 0x12A4, symBinAddr: 0x100002EB8, symSize: 0x34 }
  - { offsetInCU: 0x14C97, offset: 0x14C97, size: 0x8, addend: 0x0, symName: __ZNSt3__1neB7v160006IPcEEbRKNS_11__wrap_iterIT_EES6_, symObjAddr: 0x1404, symBinAddr: 0x100003018, symSize: 0x34 }
  - { offsetInCU: 0x14CDA, offset: 0x14CDA, size: 0x8, addend: 0x0, symName: __ZNSt3__1neB7v160006IPlEEbRKNS_11__wrap_iterIT_EES6_, symObjAddr: 0x14D0, symBinAddr: 0x1000030E4, symSize: 0x34 }
  - { offsetInCU: 0x14D1D, offset: 0x14D1D, size: 0x8, addend: 0x0, symName: __ZNSt3__1lsB7v160006INS_11char_traitsIcEEEERNS_13basic_ostreamIcT_EES6_PKc, symObjAddr: 0x1850, symBinAddr: 0x100003464, symSize: 0x48 }
  - { offsetInCU: 0x14D63, offset: 0x14D63, size: 0x8, addend: 0x0, symName: __ZNSt3__14endlB7v160006IcNS_11char_traitsIcEEEERNS_13basic_ostreamIT_T0_EES7_, symObjAddr: 0x18C4, symBinAddr: 0x1000034D8, symSize: 0x58 }
  - { offsetInCU: 0x14DAE, offset: 0x14DAE, size: 0x8, addend: 0x0, symName: __ZNSt3__119__debug_db_insert_cB7v160006INS_12basic_stringIcNS_11char_traitsIcEENS_9allocatorIcEEEEEEvPT_, symObjAddr: 0x1A50, symBinAddr: 0x100003664, symSize: 0x10 }
  - { offsetInCU: 0x14DDF, offset: 0x14DDF, size: 0x8, addend: 0x0, symName: __ZNSt3__119__debug_db_insert_cB7v160006INS_6vectorINS1_IcNS_9allocatorIcEEEENS2_IS4_EEEEEEvPT_, symObjAddr: 0x1C28, symBinAddr: 0x10000383C, symSize: 0x10 }
  - { offsetInCU: 0x14E10, offset: 0x14E10, size: 0x8, addend: 0x0, symName: __ZNSt3__119__debug_db_insert_cB7v160006INS_6vectorIcNS_9allocatorIcEEEEEEvPT_, symObjAddr: 0x1D94, symBinAddr: 0x1000039A8, symSize: 0x10 }
  - { offsetInCU: 0x14E41, offset: 0x14E41, size: 0x8, addend: 0x0, symName: __ZNSt3__112__to_addressB7v160006IcEEPT_S2_, symObjAddr: 0x217C, symBinAddr: 0x100003D90, symSize: 0x14 }
  - { offsetInCU: 0x14E9B, offset: 0x14E9B, size: 0x8, addend: 0x0, symName: __ZNSt3__112construct_atB7v160006IcJRKcEPcEEPT_S5_DpOT0_, symObjAddr: 0x2200, symBinAddr: 0x100003E14, symSize: 0x2C }
  - { offsetInCU: 0x14F0B, offset: 0x14F0B, size: 0x8, addend: 0x0, symName: __ZNSt3__13maxB7v160006ImEERKT_S3_S3_, symObjAddr: 0x2574, symBinAddr: 0x100004188, symSize: 0x2C }
  - { offsetInCU: 0x14F4E, offset: 0x14F4E, size: 0x8, addend: 0x0, symName: __ZNSt3__13minB7v160006ImEERKT_S3_S3_, symObjAddr: 0x25A0, symBinAddr: 0x1000041B4, symSize: 0x2C }
  - { offsetInCU: 0x1517B, offset: 0x1517B, size: 0x8, addend: 0x0, symName: __ZNSt3__13minB7v160006ImNS_6__lessImmEEEERKT_S5_S5_T0_, symObjAddr: 0x2630, symBinAddr: 0x100004244, symSize: 0x54 }
  - { offsetInCU: 0x153FC, offset: 0x153FC, size: 0x8, addend: 0x0, symName: __ZNSt3__120__throw_length_errorB7v160006EPKc, symObjAddr: 0x2714, symBinAddr: 0x100004328, symSize: 0x64 }
  - { offsetInCU: 0x15424, offset: 0x15424, size: 0x8, addend: 0x0, symName: __ZNSt3__13maxB7v160006ImNS_6__lessImmEEEERKT_S5_S5_T0_, symObjAddr: 0x2858, symBinAddr: 0x10000446C, symSize: 0x54 }
  - { offsetInCU: 0x1547E, offset: 0x1547E, size: 0x8, addend: 0x0, symName: __ZNSt3__119__allocate_at_leastB7v160006INS_9allocatorIcEEEENS_19__allocation_resultINS_16allocator_traitsIT_E7pointerEEERS5_m, symObjAddr: 0x29BC, symBinAddr: 0x1000045D0, symSize: 0x40 }
  - { offsetInCU: 0x154C1, offset: 0x154C1, size: 0x8, addend: 0x0, symName: __ZNSt3__117__libcpp_allocateB7v160006Emm, symObjAddr: 0x2B40, symBinAddr: 0x100004754, symSize: 0x60 }
  - { offsetInCU: 0x1551B, offset: 0x1551B, size: 0x8, addend: 0x0, symName: __ZNSt3__124__is_overaligned_for_newB7v160006Em, symObjAddr: 0x2BA0, symBinAddr: 0x1000047B4, symSize: 0x20 }
  - { offsetInCU: 0x15549, offset: 0x15549, size: 0x8, addend: 0x0, symName: __ZNSt3__121__libcpp_operator_newB7v160006IJmSt11align_val_tEEEPvDpT_, symObjAddr: 0x2BC0, symBinAddr: 0x1000047D4, symSize: 0x2C }
  - { offsetInCU: 0x15596, offset: 0x15596, size: 0x8, addend: 0x0, symName: __ZNSt3__121__libcpp_operator_newB7v160006IJmEEEPvDpT_, symObjAddr: 0x2BEC, symBinAddr: 0x100004800, symSize: 0x24 }
  - { offsetInCU: 0x155CF, offset: 0x155CF, size: 0x8, addend: 0x0, symName: __ZNSt3__142__uninitialized_allocator_move_if_noexceptB7v160006INS_9allocatorIcEENS_16reverse_iteratorIPcEES5_cvEET1_RT_T0_S9_S6_, symObjAddr: 0x2D2C, symBinAddr: 0x100004940, symSize: 0x78 }
  - { offsetInCU: 0x1564C, offset: 0x1564C, size: 0x8, addend: 0x0, symName: __ZNSt3__14swapB7v160006IPcEENS_9enable_ifIXaasr21is_move_constructibleIT_EE5valuesr18is_move_assignableIS3_EE5valueEvE4typeERS3_S6_, symObjAddr: 0x2DF0, symBinAddr: 0x100004A04, symSize: 0x3C }
  - { offsetInCU: 0x1569D, offset: 0x1569D, size: 0x8, addend: 0x0, symName: __ZNSt3__125__debug_db_invalidate_allB7v160006INS_6vectorIcNS_9allocatorIcEEEEEEvPT_, symObjAddr: 0x2ED8, symBinAddr: 0x100004AEC, symSize: 0x10 }
  - { offsetInCU: 0x156CE, offset: 0x156CE, size: 0x8, addend: 0x0, symName: __ZNSt3__14moveB7v160006INS_16reverse_iteratorIPcEES3_EET0_T_S5_S4_, symObjAddr: 0x2F30, symBinAddr: 0x100004B44, symSize: 0x78 }
  - { offsetInCU: 0x15728, offset: 0x15728, size: 0x8, addend: 0x0, symName: __ZNSt3__16__moveB7v160006INS_17_ClassicAlgPolicyENS_16reverse_iteratorIPcEES4_S4_EENS_4pairIT0_T2_EES6_T1_S7_, symObjAddr: 0x2FA8, symBinAddr: 0x100004BBC, symSize: 0x64 }
  - { offsetInCU: 0x15794, offset: 0x15794, size: 0x8, addend: 0x0, symName: __ZNSt3__123__dispatch_copy_or_moveB7v160006INS_17_ClassicAlgPolicyENS_11__move_loopIS1_EENS_14__move_trivialENS_16reverse_iteratorIPcEES7_S7_EENS_4pairIT2_T4_EES9_T3_SA_, symObjAddr: 0x300C, symBinAddr: 0x100004C20, symSize: 0x64 }
  - { offsetInCU: 0x15812, offset: 0x15812, size: 0x8, addend: 0x0, symName: __ZNSt3__121__unwrap_and_dispatchB7v160006INS_10__overloadINS_11__move_loopINS_17_ClassicAlgPolicyEEENS_14__move_trivialEEENS_16reverse_iteratorIPcEES9_S9_Li0EEENS_4pairIT0_T2_EESB_T1_SC_, symObjAddr: 0x3070, symBinAddr: 0x100004C84, symSize: 0x12C }
  - { offsetInCU: 0x158A2, offset: 0x158A2, size: 0x8, addend: 0x0, symName: __ZNSt3__114__unwrap_rangeB7v160006INS_16reverse_iteratorIPcEES3_EEDaT_T0_, symObjAddr: 0x319C, symBinAddr: 0x100004DB0, symSize: 0x4C }
  - { offsetInCU: 0x15A5C, offset: 0x15A5C, size: 0x8, addend: 0x0, symName: __ZNSt3__113__unwrap_iterB7v160006INS_16reverse_iteratorIPcEENS_18__unwrap_iter_implIS3_Lb0EEELi0EEEDTclsrT0_8__unwrapclsr3stdE7declvalIT_EEEES7_, symObjAddr: 0x3288, symBinAddr: 0x100004E9C, symSize: 0x44 }
  - { offsetInCU: 0x15AA0, offset: 0x15AA0, size: 0x8, addend: 0x0, symName: __ZNSt3__19make_pairB7v160006INS_16reverse_iteratorIPcEES3_EENS_4pairINS_18__unwrap_ref_decayIT_E4typeENS5_IT0_E4typeEEEOS6_OS9_, symObjAddr: 0x32CC, symBinAddr: 0x100004EE0, symSize: 0x38 }
  - { offsetInCU: 0x15AEF, offset: 0x15AEF, size: 0x8, addend: 0x0, symName: __ZNSt3__114__rewrap_rangeB7v160006INS_16reverse_iteratorIPcEES3_S3_EET0_S4_T1_, symObjAddr: 0x3304, symBinAddr: 0x100004F18, symSize: 0x5C }
  - { offsetInCU: 0x15B44, offset: 0x15B44, size: 0x8, addend: 0x0, symName: __ZNSt3__113__rewrap_iterB7v160006INS_16reverse_iteratorIPcEES3_NS_18__unwrap_iter_implIS3_Lb0EEEEET_S6_T0_, symObjAddr: 0x3360, symBinAddr: 0x100004F74, symSize: 0x74 }
  - { offsetInCU: 0x15BE9, offset: 0x15BE9, size: 0x8, addend: 0x0, symName: __ZNSt3__1neB7v160006IPcS1_EEbRKNS_16reverse_iteratorIT_EERKNS2_IT0_EE, symObjAddr: 0x34C8, symBinAddr: 0x1000050DC, symSize: 0x48 }
  - { offsetInCU: 0x15D1A, offset: 0x15D1A, size: 0x8, addend: 0x0, symName: __ZNSt3__110destroy_atB7v160006IcLi0EEEvPT_, symObjAddr: 0x384C, symBinAddr: 0x100005460, symSize: 0x24 }
  - { offsetInCU: 0x15D51, offset: 0x15D51, size: 0x8, addend: 0x0, symName: __ZNSt3__112__destroy_atB7v160006IcLi0EEEvPT_, symObjAddr: 0x3870, symBinAddr: 0x100005484, symSize: 0x10 }
  - { offsetInCU: 0x15D88, offset: 0x15D88, size: 0x8, addend: 0x0, symName: __ZNSt3__119__libcpp_deallocateB7v160006EPvmm, symObjAddr: 0x38C0, symBinAddr: 0x1000054D4, symSize: 0x60 }
  - { offsetInCU: 0x15DED, offset: 0x15DED, size: 0x8, addend: 0x0, symName: __ZNSt3__127__do_deallocate_handle_sizeB7v160006IJSt11align_val_tEEEvPvmDpT_, symObjAddr: 0x3920, symBinAddr: 0x100005534, symSize: 0x30 }
  - { offsetInCU: 0x15E40, offset: 0x15E40, size: 0x8, addend: 0x0, symName: __ZNSt3__127__do_deallocate_handle_sizeB7v160006IJEEEvPvmDpT_, symObjAddr: 0x3950, symBinAddr: 0x100005564, symSize: 0x28 }
  - { offsetInCU: 0x15E7E, offset: 0x15E7E, size: 0x8, addend: 0x0, symName: __ZNSt3__124__libcpp_operator_deleteB7v160006IJPvSt11align_val_tEEEvDpT_, symObjAddr: 0x3978, symBinAddr: 0x10000558C, symSize: 0x2C }
  - { offsetInCU: 0x15EC7, offset: 0x15EC7, size: 0x8, addend: 0x0, symName: __ZNSt3__124__libcpp_operator_deleteB7v160006IJPvEEEvDpT_, symObjAddr: 0x39A4, symBinAddr: 0x1000055B8, symSize: 0x24 }
  - { offsetInCU: 0x15EFC, offset: 0x15EFC, size: 0x8, addend: 0x0, symName: __ZNSt3__112__to_addressB7v160006INS_6vectorIcNS_9allocatorIcEEEEEEPT_S6_, symObjAddr: 0x3C70, symBinAddr: 0x100005884, symSize: 0x14 }
  - { offsetInCU: 0x15F56, offset: 0x15F56, size: 0x8, addend: 0x0, symName: __ZNSt3__112construct_atB7v160006INS_6vectorIcNS_9allocatorIcEEEEJRKS4_EPS4_EEPT_S9_DpOT0_, symObjAddr: 0x3CFC, symBinAddr: 0x100005910, symSize: 0x3C }
  - { offsetInCU: 0x15FC6, offset: 0x15FC6, size: 0x8, addend: 0x0, symName: __ZNSt3__119__allocate_at_leastB7v160006INS_9allocatorINS_6vectorIcNS1_IcEEEEEEEENS_19__allocation_resultINS_16allocator_traitsIT_E7pointerEEERS8_m, symObjAddr: 0x428C, symBinAddr: 0x100005EA0, symSize: 0x40 }
  - { offsetInCU: 0x16009, offset: 0x16009, size: 0x8, addend: 0x0, symName: __ZNSt3__142__uninitialized_allocator_move_if_noexceptB7v160006INS_9allocatorINS_6vectorIcNS1_IcEEEEEENS_16reverse_iteratorIPS4_EES8_S8_EET2_RT_T0_T1_S9_, symObjAddr: 0x4518, symBinAddr: 0x10000612C, symSize: 0x12C }
  - { offsetInCU: 0x160A9, offset: 0x160A9, size: 0x8, addend: 0x0, symName: __ZNSt3__14swapB7v160006IPNS_6vectorIcNS_9allocatorIcEEEEEENS_9enable_ifIXaasr21is_move_constructibleIT_EE5valuesr18is_move_assignableIS7_EE5valueEvE4typeERS7_SA_, symObjAddr: 0x4690, symBinAddr: 0x1000062A4, symSize: 0x3C }
  - { offsetInCU: 0x160FA, offset: 0x160FA, size: 0x8, addend: 0x0, symName: __ZNSt3__125__debug_db_invalidate_allB7v160006INS_6vectorINS1_IcNS_9allocatorIcEEEENS2_IS4_EEEEEEvPT_, symObjAddr: 0x4794, symBinAddr: 0x1000063A8, symSize: 0x10 }
  - { offsetInCU: 0x1612B, offset: 0x1612B, size: 0x8, addend: 0x0, symName: __ZNSt3__122__make_exception_guardB7v160006INS_29_AllocatorDestroyRangeReverseINS_9allocatorINS_6vectorIcNS2_IcEEEEEENS_16reverse_iteratorIPS5_EEEEEENS_28__exception_guard_exceptionsIT_EESC_, symObjAddr: 0x47EC, symBinAddr: 0x100006400, symSize: 0x4C }
  - { offsetInCU: 0x16161, offset: 0x16161, size: 0x8, addend: 0x0, symName: __ZNSt3__1neB7v160006IPNS_6vectorIcNS_9allocatorIcEEEES5_EEbRKNS_16reverse_iteratorIT_EERKNS6_IT0_EE, symObjAddr: 0x487C, symBinAddr: 0x100006490, symSize: 0x48 }
  - { offsetInCU: 0x161AD, offset: 0x161AD, size: 0x8, addend: 0x0, symName: __ZNSt3__112__to_addressB7v160006INS_16reverse_iteratorIPNS_6vectorIcNS_9allocatorIcEEEEEEvEENS_5decayIDTclsr19__to_address_helperIT_EE6__callclsr3stdE7declvalIRKS9_EEEEE4typeESB_, symObjAddr: 0x48F4, symBinAddr: 0x100006508, symSize: 0x24 }
  - { offsetInCU: 0x161E3, offset: 0x161E3, size: 0x8, addend: 0x0, symName: __ZNSt3__112construct_atB7v160006INS_6vectorIcNS_9allocatorIcEEEEJS4_EPS4_EEPT_S7_DpOT0_, symObjAddr: 0x4A44, symBinAddr: 0x100006658, symSize: 0x3C }
  - { offsetInCU: 0x16253, offset: 0x16253, size: 0x8, addend: 0x0, symName: __ZNSt3__115__debug_db_swapB7v160006INS_6vectorIcNS_9allocatorIcEEEEEEvPT_S6_, symObjAddr: 0x4BCC, symBinAddr: 0x1000067E0, symSize: 0x14 }
  - { offsetInCU: 0x162BB, offset: 0x162BB, size: 0x8, addend: 0x0, symName: __ZNSt3__14prevB7v160006IPNS_6vectorIcNS_9allocatorIcEEEEEENS_9enable_ifIXsr25__is_cpp17_input_iteratorIT_EE5valueES7_E4typeES7_NS_15iterator_traitsIS7_E15difference_typeE, symObjAddr: 0x4CA0, symBinAddr: 0x1000068B4, symSize: 0x50 }
  - { offsetInCU: 0x162FE, offset: 0x162FE, size: 0x8, addend: 0x0, symName: __ZNSt3__121__convert_to_integralB7v160006El, symObjAddr: 0x4D40, symBinAddr: 0x100006954, symSize: 0x14 }
  - { offsetInCU: 0x1632A, offset: 0x1632A, size: 0x8, addend: 0x0, symName: __ZNSt3__19__advanceB7v160006IPNS_6vectorIcNS_9allocatorIcEEEEEEvRT_NS_15iterator_traitsIS6_E15difference_typeENS_26random_access_iterator_tagE, symObjAddr: 0x4D54, symBinAddr: 0x100006968, symSize: 0x30 }
  - { offsetInCU: 0x16373, offset: 0x16373, size: 0x8, addend: 0x0, symName: __ZNSt3__119__allocator_destroyB7v160006INS_9allocatorINS_6vectorIcNS1_IcEEEEEENS_16reverse_iteratorINS6_IPS4_EEEES9_EEvRT_T0_T1_, symObjAddr: 0x4E88, symBinAddr: 0x100006A9C, symSize: 0x70 }
  - { offsetInCU: 0x163D8, offset: 0x163D8, size: 0x8, addend: 0x0, symName: __ZNSt3__1neB7v160006INS_16reverse_iteratorIPNS_6vectorIcNS_9allocatorIcEEEEEES7_EEbRKNS1_IT_EERKNS1_IT0_EE, symObjAddr: 0x4F34, symBinAddr: 0x100006B48, symSize: 0x60 }
  - { offsetInCU: 0x16424, offset: 0x16424, size: 0x8, addend: 0x0, symName: __ZNSt3__112__to_addressB7v160006INS_16reverse_iteratorINS1_IPNS_6vectorIcNS_9allocatorIcEEEEEEEEvEENS_5decayIDTclsr19__to_address_helperIT_EE6__callclsr3stdE7declvalIRKSA_EEEEE4typeESC_, symObjAddr: 0x4FBC, symBinAddr: 0x100006BD0, symSize: 0x24 }
  - { offsetInCU: 0x1645A, offset: 0x1645A, size: 0x8, addend: 0x0, symName: __ZNSt3__110destroy_atB7v160006INS_6vectorIcNS_9allocatorIcEEEELi0EEEvPT_, symObjAddr: 0x5034, symBinAddr: 0x100006C48, symSize: 0x24 }
  - { offsetInCU: 0x16491, offset: 0x16491, size: 0x8, addend: 0x0, symName: __ZNSt3__112__destroy_atB7v160006INS_6vectorIcNS_9allocatorIcEEEELi0EEEvPT_, symObjAddr: 0x5058, symBinAddr: 0x100006C6C, symSize: 0x24 }
  - { offsetInCU: 0x164F1, offset: 0x164F1, size: 0x8, addend: 0x0, symName: __ZNSt3__14prevB7v160006INS_16reverse_iteratorIPNS_6vectorIcNS_9allocatorIcEEEEEEEENS_9enable_ifIXsr25__is_cpp17_input_iteratorIT_EE5valueES9_E4typeES9_NS_15iterator_traitsIS9_E15difference_typeE, symObjAddr: 0x5100, symBinAddr: 0x100006D14, symSize: 0x60 }
  - { offsetInCU: 0x16534, offset: 0x16534, size: 0x8, addend: 0x0, symName: __ZNSt3__19__advanceB7v160006INS_16reverse_iteratorIPNS_6vectorIcNS_9allocatorIcEEEEEEEEvRT_NS_15iterator_traitsIS8_E15difference_typeENS_26random_access_iterator_tagE, symObjAddr: 0x51B0, symBinAddr: 0x100006DC4, symSize: 0x2C }
  - { offsetInCU: 0x1657D, offset: 0x1657D, size: 0x8, addend: 0x0, symName: __ZNSt3__118__debug_db_erase_cB7v160006INS_6vectorIcNS_9allocatorIcEEEEEEvPT_, symObjAddr: 0x573C, symBinAddr: 0x100007350, symSize: 0x10 }
  - { offsetInCU: 0x165AE, offset: 0x165AE, size: 0x8, addend: 0x0, symName: __ZNSt3__119__debug_db_insert_cB7v160006INS_6vectorIlNS_9allocatorIlEEEEEEvPT_, symObjAddr: 0x5894, symBinAddr: 0x1000074A8, symSize: 0x10 }
  - { offsetInCU: 0x165DF, offset: 0x165DF, size: 0x8, addend: 0x0, symName: __ZNSt3__120__throw_out_of_rangeB7v160006EPKc, symObjAddr: 0x5988, symBinAddr: 0x10000759C, symSize: 0x64 }
  - { offsetInCU: 0x16609, offset: 0x16609, size: 0x8, addend: 0x0, symName: __ZNSt3__122__make_exception_guardB7v160006INS_6vectorIcNS_9allocatorIcEEE16__destroy_vectorEEENS_28__exception_guard_exceptionsIT_EES7_, symObjAddr: 0x5B8C, symBinAddr: 0x1000077A0, symSize: 0x40 }
  - { offsetInCU: 0x1663E, offset: 0x1663E, size: 0x8, addend: 0x0, symName: __ZNSt3__130__uninitialized_allocator_copyB7v160006INS_9allocatorIcEEPcS3_S3_EET2_RT_T0_T1_S4_, symObjAddr: 0x5DA4, symBinAddr: 0x1000079B8, symSize: 0xF4 }
  - { offsetInCU: 0x166DC, offset: 0x166DC, size: 0x8, addend: 0x0, symName: __ZNSt3__122__make_exception_guardB7v160006INS_29_AllocatorDestroyRangeReverseINS_9allocatorIcEEPcEEEENS_28__exception_guard_exceptionsIT_EES7_, symObjAddr: 0x5E98, symBinAddr: 0x100007AAC, symSize: 0x4C }
  - { offsetInCU: 0x16712, offset: 0x16712, size: 0x8, addend: 0x0, symName: __ZNSt3__112construct_atB7v160006IcJRcEPcEEPT_S4_DpOT0_, symObjAddr: 0x603C, symBinAddr: 0x100007C50, symSize: 0x2C }
  - { offsetInCU: 0x16782, offset: 0x16782, size: 0x8, addend: 0x0, symName: __ZNSt3__119__allocator_destroyB7v160006INS_9allocatorIcEENS_16reverse_iteratorIPcEES5_EEvRT_T0_T1_, symObjAddr: 0x6120, symBinAddr: 0x100007D34, symSize: 0x70 }
  - { offsetInCU: 0x167E5, offset: 0x167E5, size: 0x8, addend: 0x0, symName: __ZNSt3__112__to_addressB7v160006INS_16reverse_iteratorIPcEEvEENS_5decayIDTclsr19__to_address_helperIT_EE6__callclsr3stdE7declvalIRKS5_EEEEE4typeES7_, symObjAddr: 0x6190, symBinAddr: 0x100007DA4, symSize: 0x24 }
  - { offsetInCU: 0x16844, offset: 0x16844, size: 0x8, addend: 0x0, symName: __ZNSt3__14prevB7v160006IPcEENS_9enable_ifIXsr25__is_cpp17_input_iteratorIT_EE5valueES3_E4typeES3_NS_15iterator_traitsIS3_E15difference_typeE, symObjAddr: 0x6218, symBinAddr: 0x100007E2C, symSize: 0x50 }
  - { offsetInCU: 0x16887, offset: 0x16887, size: 0x8, addend: 0x0, symName: __ZNSt3__19__advanceB7v160006IPcEEvRT_NS_15iterator_traitsIS2_E15difference_typeENS_26random_access_iterator_tagE, symObjAddr: 0x62B8, symBinAddr: 0x100007ECC, symSize: 0x28 }
  - { offsetInCU: 0x168D0, offset: 0x168D0, size: 0x8, addend: 0x0, symName: __ZNSt3__1eqB7v160006IPNS_6vectorIcNS_9allocatorIcEEEEEEbRKNS_11__wrap_iterIT_EESA_, symObjAddr: 0x63E0, symBinAddr: 0x100007FF4, symSize: 0x48 }
  - { offsetInCU: 0x16913, offset: 0x16913, size: 0x8, addend: 0x0, symName: __ZNSt3__112__to_addressB7v160006IlEEPT_S2_, symObjAddr: 0x669C, symBinAddr: 0x1000082B0, symSize: 0x14 }
  - { offsetInCU: 0x1696D, offset: 0x1696D, size: 0x8, addend: 0x0, symName: __ZNSt3__112construct_atB7v160006IlJlEPlEEPT_S3_DpOT0_, symObjAddr: 0x6720, symBinAddr: 0x100008334, symSize: 0x2C }
  - { offsetInCU: 0x169DD, offset: 0x169DD, size: 0x8, addend: 0x0, symName: __ZNSt3__119__allocate_at_leastB7v160006INS_9allocatorIlEEEENS_19__allocation_resultINS_16allocator_traitsIT_E7pointerEEERS5_m, symObjAddr: 0x6CBC, symBinAddr: 0x1000088D0, symSize: 0x40 }
  - { offsetInCU: 0x16A20, offset: 0x16A20, size: 0x8, addend: 0x0, symName: __ZNSt3__142__uninitialized_allocator_move_if_noexceptB7v160006INS_9allocatorIlEENS_16reverse_iteratorIPlEES5_lvEET1_RT_T0_S9_S6_, symObjAddr: 0x6F28, symBinAddr: 0x100008B3C, symSize: 0x78 }
  - { offsetInCU: 0x16A9D, offset: 0x16A9D, size: 0x8, addend: 0x0, symName: __ZNSt3__14swapB7v160006IPlEENS_9enable_ifIXaasr21is_move_constructibleIT_EE5valuesr18is_move_assignableIS3_EE5valueEvE4typeERS3_S6_, symObjAddr: 0x6FEC, symBinAddr: 0x100008C00, symSize: 0x3C }
  - { offsetInCU: 0x16AEE, offset: 0x16AEE, size: 0x8, addend: 0x0, symName: __ZNSt3__125__debug_db_invalidate_allB7v160006INS_6vectorIlNS_9allocatorIlEEEEEEvPT_, symObjAddr: 0x70D4, symBinAddr: 0x100008CE8, symSize: 0x10 }
  - { offsetInCU: 0x16B1F, offset: 0x16B1F, size: 0x8, addend: 0x0, symName: __ZNSt3__14moveB7v160006INS_16reverse_iteratorIPlEES3_EET0_T_S5_S4_, symObjAddr: 0x712C, symBinAddr: 0x100008D40, symSize: 0x78 }
  - { offsetInCU: 0x16B79, offset: 0x16B79, size: 0x8, addend: 0x0, symName: __ZNSt3__16__moveB7v160006INS_17_ClassicAlgPolicyENS_16reverse_iteratorIPlEES4_S4_EENS_4pairIT0_T2_EES6_T1_S7_, symObjAddr: 0x71A4, symBinAddr: 0x100008DB8, symSize: 0x64 }
  - { offsetInCU: 0x16BE5, offset: 0x16BE5, size: 0x8, addend: 0x0, symName: __ZNSt3__123__dispatch_copy_or_moveB7v160006INS_17_ClassicAlgPolicyENS_11__move_loopIS1_EENS_14__move_trivialENS_16reverse_iteratorIPlEES7_S7_EENS_4pairIT2_T4_EES9_T3_SA_, symObjAddr: 0x7208, symBinAddr: 0x100008E1C, symSize: 0x64 }
  - { offsetInCU: 0x16C63, offset: 0x16C63, size: 0x8, addend: 0x0, symName: __ZNSt3__121__unwrap_and_dispatchB7v160006INS_10__overloadINS_11__move_loopINS_17_ClassicAlgPolicyEEENS_14__move_trivialEEENS_16reverse_iteratorIPlEES9_S9_Li0EEENS_4pairIT0_T2_EESB_T1_SC_, symObjAddr: 0x726C, symBinAddr: 0x100008E80, symSize: 0x12C }
  - { offsetInCU: 0x16CF3, offset: 0x16CF3, size: 0x8, addend: 0x0, symName: __ZNSt3__114__unwrap_rangeB7v160006INS_16reverse_iteratorIPlEES3_EEDaT_T0_, symObjAddr: 0x7398, symBinAddr: 0x100008FAC, symSize: 0x4C }
  - { offsetInCU: 0x16E13, offset: 0x16E13, size: 0x8, addend: 0x0, symName: __ZNSt3__113__unwrap_iterB7v160006INS_16reverse_iteratorIPlEENS_18__unwrap_iter_implIS3_Lb0EEELi0EEEDTclsrT0_8__unwrapclsr3stdE7declvalIT_EEEES7_, symObjAddr: 0x7484, symBinAddr: 0x100009098, symSize: 0x44 }
  - { offsetInCU: 0x16E57, offset: 0x16E57, size: 0x8, addend: 0x0, symName: __ZNSt3__19make_pairB7v160006INS_16reverse_iteratorIPlEES3_EENS_4pairINS_18__unwrap_ref_decayIT_E4typeENS5_IT0_E4typeEEEOS6_OS9_, symObjAddr: 0x74C8, symBinAddr: 0x1000090DC, symSize: 0x38 }
  - { offsetInCU: 0x16EA6, offset: 0x16EA6, size: 0x8, addend: 0x0, symName: __ZNSt3__114__rewrap_rangeB7v160006INS_16reverse_iteratorIPlEES3_S3_EET0_S4_T1_, symObjAddr: 0x7500, symBinAddr: 0x100009114, symSize: 0x5C }
  - { offsetInCU: 0x16EFB, offset: 0x16EFB, size: 0x8, addend: 0x0, symName: __ZNSt3__113__rewrap_iterB7v160006INS_16reverse_iteratorIPlEES3_NS_18__unwrap_iter_implIS3_Lb0EEEEET_S6_T0_, symObjAddr: 0x755C, symBinAddr: 0x100009170, symSize: 0x74 }
  - { offsetInCU: 0x16FA0, offset: 0x16FA0, size: 0x8, addend: 0x0, symName: __ZNSt3__1neB7v160006IPlS1_EEbRKNS_16reverse_iteratorIT_EERKNS2_IT0_EE, symObjAddr: 0x76C4, symBinAddr: 0x1000092D8, symSize: 0x48 }
  - { offsetInCU: 0x17058, offset: 0x17058, size: 0x8, addend: 0x0, symName: __ZNSt3__110destroy_atB7v160006IlLi0EEEvPT_, symObjAddr: 0x7A50, symBinAddr: 0x100009664, symSize: 0x24 }
  - { offsetInCU: 0x1708F, offset: 0x1708F, size: 0x8, addend: 0x0, symName: __ZNSt3__112__destroy_atB7v160006IlLi0EEEvPT_, symObjAddr: 0x7A74, symBinAddr: 0x100009688, symSize: 0x10 }
  - { offsetInCU: 0x170C6, offset: 0x170C6, size: 0x8, addend: 0x0, symName: __ZNSt3__1eqB7v160006IPcEEbRKNS_11__wrap_iterIT_EES6_, symObjAddr: 0x7BA4, symBinAddr: 0x1000097B8, symSize: 0x48 }
  - { offsetInCU: 0x17109, offset: 0x17109, size: 0x8, addend: 0x0, symName: __ZNSt3__1eqB7v160006IPlEEbRKNS_11__wrap_iterIT_EES6_, symObjAddr: 0x7C98, symBinAddr: 0x1000098AC, symSize: 0x48 }
  - { offsetInCU: 0x1714C, offset: 0x1714C, size: 0x8, addend: 0x0, symName: __ZNSt3__118__debug_db_erase_cB7v160006INS_6vectorIlNS_9allocatorIlEEEEEEvPT_, symObjAddr: 0x7E54, symBinAddr: 0x100009A68, symSize: 0x10 }
  - { offsetInCU: 0x1717D, offset: 0x1717D, size: 0x8, addend: 0x0, symName: __ZNSt3__118__debug_db_erase_cB7v160006INS_6vectorINS1_IcNS_9allocatorIcEEEENS2_IS4_EEEEEEvPT_, symObjAddr: 0x804C, symBinAddr: 0x100009C60, symSize: 0x10 }
  - { offsetInCU: 0x171AE, offset: 0x171AE, size: 0x8, addend: 0x0, symName: __ZNSt3__17getlineB7v160006IcNS_11char_traitsIcEENS_9allocatorIcEEEERNS_13basic_istreamIT_T0_EES9_RNS_12basic_stringIS6_S7_T1_EES6_, symObjAddr: 0x849C, symBinAddr: 0x10000A0B0, symSize: 0x238 }
  - { offsetInCU: 0x1726C, offset: 0x1726C, size: 0x8, addend: 0x0, symName: __ZNSt3__125__debug_db_invalidate_allB7v160006INS_12basic_stringIcNS_11char_traitsIcEENS_9allocatorIcEEEEEEvPT_, symObjAddr: 0x8A60, symBinAddr: 0x10000A674, symSize: 0x10 }
  - { offsetInCU: 0x1729D, offset: 0x1729D, size: 0x8, addend: 0x0, symName: __ZNSt3__19use_facetB7v160006INS_5ctypeIcEEEERKT_RKNS_6localeE, symObjAddr: 0x8C68, symBinAddr: 0x10000A87C, symSize: 0x2C }
  - { offsetInCU: 0x1776C, offset: 0x1776C, size: 0x8, addend: 0x0, symName: __ZNSt3__116__pad_and_outputB7v160006IcNS_11char_traitsIcEEEENS_19ostreambuf_iteratorIT_T0_EES6_PKS4_S8_S8_RNS_8ios_baseES4_, symObjAddr: 0x8EFC, symBinAddr: 0x10000AB10, symSize: 0x240 }
  - { offsetInCU: 0x1783B, offset: 0x1783B, size: 0x8, addend: 0x0, symName: __ZNSt3__112__to_addressB7v160006IKcEEPT_S3_, symObjAddr: 0x93F0, symBinAddr: 0x10000B004, symSize: 0x14 }
  - { offsetInCU: 0x178A3, offset: 0x178A3, size: 0x8, addend: 0x0, symName: __ZNSt3__118__constexpr_strlenB7v160006EPKc, symObjAddr: 0x94F0, symBinAddr: 0x10000B104, symSize: 0x24 }
  - { offsetInCU: 0x17F9D, offset: 0x17F9D, size: 0x8, addend: 0x0, symName: __ZSt28__throw_bad_array_new_lengthB7v160006v, symObjAddr: 0x2B0C, symBinAddr: 0x100004720, symSize: 0x34 }
  - { offsetInCU: 0x18A62, offset: 0x18A62, size: 0x8, addend: 0x0, symName: __ZNSt3__16vectorIcNS_9allocatorIcEEE26__swap_out_circular_bufferERNS_14__split_bufferIcRS2_EE, symObjAddr: 0x237C, symBinAddr: 0x100003F90, symSize: 0x118 }
  - { offsetInCU: 0x18C44, offset: 0x18C44, size: 0x8, addend: 0x0, symName: __ZNSt3__16vectorINS0_IcNS_9allocatorIcEEEENS1_IS3_EEE26__swap_out_circular_bufferERNS_14__split_bufferIS3_RS4_EE, symObjAddr: 0x3E88, symBinAddr: 0x100005A9C, symSize: 0x118 }
  - { offsetInCU: 0x18ED1, offset: 0x18ED1, size: 0x8, addend: 0x0, symName: __ZNSt3__16vectorIlNS_9allocatorIlEEE26__swap_out_circular_bufferERNS_14__split_bufferIlRS2_EE, symObjAddr: 0x68C4, symBinAddr: 0x1000084D8, symSize: 0x118 }
  - { offsetInCU: 0x1B1F9, offset: 0x1B1F9, size: 0x8, addend: 0x0, symName: _main, symObjAddr: 0x0, symBinAddr: 0x100001C14, symSize: 0xA90 }
  - { offsetInCU: 0x1B7F1, offset: 0x1B7F1, size: 0x8, addend: 0x0, symName: __ZNSt3__114basic_ifstreamIcNS_11char_traitsIcEEEC1Ev, symObjAddr: 0xA90, symBinAddr: 0x1000026A4, symSize: 0xE8 }
  - { offsetInCU: 0x1B81D, offset: 0x1B81D, size: 0x8, addend: 0x0, symName: __ZNSt3__112basic_stringIcNS_11char_traitsIcEENS_9allocatorIcEEEC1B7v160006Ev, symObjAddr: 0xB78, symBinAddr: 0x10000278C, symSize: 0x2C }
  - { offsetInCU: 0x1B847, offset: 0x1B847, size: 0x8, addend: 0x0, symName: __ZNKSt3__19basic_iosIcNS_11char_traitsIcEEEcvbB7v160006Ev, symObjAddr: 0xBA4, symBinAddr: 0x1000027B8, symSize: 0x2C }
  - { offsetInCU: 0x1B86D, offset: 0x1B86D, size: 0x8, addend: 0x0, symName: __ZNSt3__16vectorINS0_IcNS_9allocatorIcEEEENS1_IS3_EEEC1B7v160006Ev, symObjAddr: 0xBD0, symBinAddr: 0x1000027E4, symSize: 0x2C }
  - { offsetInCU: 0x1B897, offset: 0x1B897, size: 0x8, addend: 0x0, symName: __ZNKSt3__19basic_iosIcNS_11char_traitsIcEEE3eofB7v160006Ev, symObjAddr: 0xBFC, symBinAddr: 0x100002810, symSize: 0x28 }
  - { offsetInCU: 0x1B8BD, offset: 0x1B8BD, size: 0x8, addend: 0x0, symName: __ZNSt3__16vectorIcNS_9allocatorIcEEEC1B7v160006Ev, symObjAddr: 0xC24, symBinAddr: 0x100002838, symSize: 0x2C }
  - { offsetInCU: 0x1B94E, offset: 0x1B94E, size: 0x8, addend: 0x0, symName: __ZNSt3__118basic_stringstreamIcNS_11char_traitsIcEENS_9allocatorIcEEEC1B7v160006Ev, symObjAddr: 0xC50, symBinAddr: 0x100002864, symSize: 0x104 }
  - { offsetInCU: 0x1B978, offset: 0x1B978, size: 0x8, addend: 0x0, symName: __ZNKSt3__112basic_stringIcNS_11char_traitsIcEENS_9allocatorIcEEE5emptyB7v160006Ev, symObjAddr: 0xDB0, symBinAddr: 0x1000029C4, symSize: 0x30 }
  - { offsetInCU: 0x1B99E, offset: 0x1B99E, size: 0x8, addend: 0x0, symName: __ZNSt3__16vectorIcNS_9allocatorIcEEE9push_backB7v160006ERKc, symObjAddr: 0xFB8, symBinAddr: 0x100002BCC, symSize: 0x6C }
  - { offsetInCU: 0x1B9D5, offset: 0x1B9D5, size: 0x8, addend: 0x0, symName: __ZNSt3__16vectorINS0_IcNS_9allocatorIcEEEENS1_IS3_EEE9push_backB7v160006ERKS3_, symObjAddr: 0x1024, symBinAddr: 0x100002C38, symSize: 0x6C }
  - { offsetInCU: 0x1BA11, offset: 0x1BA11, size: 0x8, addend: 0x0, symName: __ZNSt3__118basic_stringstreamIcNS_11char_traitsIcEENS_9allocatorIcEEED1Ev, symObjAddr: 0x1090, symBinAddr: 0x100002CA4, symSize: 0x40 }
  - { offsetInCU: 0x1BA3E, offset: 0x1BA3E, size: 0x8, addend: 0x0, symName: __ZNSt3__16vectorIcNS_9allocatorIcEEED1B7v160006Ev, symObjAddr: 0x10D0, symBinAddr: 0x100002CE4, symSize: 0x2C }
  - { offsetInCU: 0x1BA68, offset: 0x1BA68, size: 0x8, addend: 0x0, symName: __ZNSt3__16vectorIlNS_9allocatorIlEEEC1B7v160006Ev, symObjAddr: 0x10FC, symBinAddr: 0x100002D10, symSize: 0x2C }
  - { offsetInCU: 0x1BA92, offset: 0x1BA92, size: 0x8, addend: 0x0, symName: __ZNSt3__16vectorINS0_IcNS_9allocatorIcEEEENS1_IS3_EEE2atEm, symObjAddr: 0x1128, symBinAddr: 0x100002D3C, symSize: 0x68 }
  - { offsetInCU: 0x1BAC9, offset: 0x1BAC9, size: 0x8, addend: 0x0, symName: __ZNSt3__16vectorIcNS_9allocatorIcEEEC1ERKS3_, symObjAddr: 0x1190, symBinAddr: 0x100002DA4, symSize: 0x34 }
  - { offsetInCU: 0x1BB04, offset: 0x1BB04, size: 0x8, addend: 0x0, symName: __ZNKSt3__16vectorIcNS_9allocatorIcEEE4sizeB7v160006Ev, symObjAddr: 0x11C4, symBinAddr: 0x100002DD8, symSize: 0x20 }
  - { offsetInCU: 0x1BB2A, offset: 0x1BB2A, size: 0x8, addend: 0x0, symName: __ZNSt3__16vectorIcNS_9allocatorIcEEE2atEm, symObjAddr: 0x11E4, symBinAddr: 0x100002DF8, symSize: 0x60 }
  - { offsetInCU: 0x1BB61, offset: 0x1BB61, size: 0x8, addend: 0x0, symName: __ZNSt3__16vectorINS0_IcNS_9allocatorIcEEEENS1_IS3_EEE5beginB7v160006Ev, symObjAddr: 0x1244, symBinAddr: 0x100002E58, symSize: 0x30 }
  - { offsetInCU: 0x1BB89, offset: 0x1BB89, size: 0x8, addend: 0x0, symName: __ZNSt3__16vectorINS0_IcNS_9allocatorIcEEEENS1_IS3_EEE3endB7v160006Ev, symObjAddr: 0x1274, symBinAddr: 0x100002E88, symSize: 0x30 }
  - { offsetInCU: 0x1BBB1, offset: 0x1BBB1, size: 0x8, addend: 0x0, symName: __ZNKSt3__111__wrap_iterIPNS_6vectorIcNS_9allocatorIcEEEEEdeB7v160006Ev, symObjAddr: 0x12D8, symBinAddr: 0x100002EEC, symSize: 0x18 }
  - { offsetInCU: 0x1BBD7, offset: 0x1BBD7, size: 0x8, addend: 0x0, symName: __ZNSt3__111__wrap_iterIPNS_6vectorIcNS_9allocatorIcEEEEEppB7v160006Ev, symObjAddr: 0x12F0, symBinAddr: 0x100002F04, symSize: 0x20 }
  - { offsetInCU: 0x1BBFD, offset: 0x1BBFD, size: 0x8, addend: 0x0, symName: __ZNSt3__16vectorIlNS_9allocatorIlEEE9push_backB7v160006EOl, symObjAddr: 0x1310, symBinAddr: 0x100002F24, symSize: 0x6C }
  - { offsetInCU: 0x1BC34, offset: 0x1BC34, size: 0x8, addend: 0x0, symName: __ZNKSt3__16vectorINS0_IcNS_9allocatorIcEEEENS1_IS3_EEE4sizeB7v160006Ev, symObjAddr: 0x137C, symBinAddr: 0x100002F90, symSize: 0x28 }
  - { offsetInCU: 0x1BC5A, offset: 0x1BC5A, size: 0x8, addend: 0x0, symName: __ZNSt3__16vectorIcNS_9allocatorIcEEE5beginB7v160006Ev, symObjAddr: 0x13A4, symBinAddr: 0x100002FB8, symSize: 0x30 }
  - { offsetInCU: 0x1BC82, offset: 0x1BC82, size: 0x8, addend: 0x0, symName: __ZNSt3__16vectorIcNS_9allocatorIcEEE3endB7v160006Ev, symObjAddr: 0x13D4, symBinAddr: 0x100002FE8, symSize: 0x30 }
  - { offsetInCU: 0x1BCAA, offset: 0x1BCAA, size: 0x8, addend: 0x0, symName: __ZNKSt3__111__wrap_iterIPcEdeB7v160006Ev, symObjAddr: 0x1438, symBinAddr: 0x10000304C, symSize: 0x18 }
  - { offsetInCU: 0x1BCD0, offset: 0x1BCD0, size: 0x8, addend: 0x0, symName: __ZNSt3__111__wrap_iterIPcEppB7v160006Ev, symObjAddr: 0x1450, symBinAddr: 0x100003064, symSize: 0x20 }
  - { offsetInCU: 0x1BCF6, offset: 0x1BCF6, size: 0x8, addend: 0x0, symName: __ZNSt3__16vectorIlNS_9allocatorIlEEE5beginB7v160006Ev, symObjAddr: 0x1470, symBinAddr: 0x100003084, symSize: 0x30 }
  - { offsetInCU: 0x1BD1E, offset: 0x1BD1E, size: 0x8, addend: 0x0, symName: __ZNSt3__16vectorIlNS_9allocatorIlEEE3endB7v160006Ev, symObjAddr: 0x14A0, symBinAddr: 0x1000030B4, symSize: 0x30 }
  - { offsetInCU: 0x1BD46, offset: 0x1BD46, size: 0x8, addend: 0x0, symName: __ZNKSt3__111__wrap_iterIPlEdeB7v160006Ev, symObjAddr: 0x1504, symBinAddr: 0x100003118, symSize: 0x18 }
  - { offsetInCU: 0x1BD6C, offset: 0x1BD6C, size: 0x8, addend: 0x0, symName: __ZNSt3__111__wrap_iterIPlEppB7v160006Ev, symObjAddr: 0x151C, symBinAddr: 0x100003130, symSize: 0x20 }
  - { offsetInCU: 0x1BD9C, offset: 0x1BD9C, size: 0x8, addend: 0x0, symName: '__ZZ4mainENK3$_0clEll', symObjAddr: 0x153C, symBinAddr: 0x100003150, symSize: 0x314 }
  - { offsetInCU: 0x1BFD0, offset: 0x1BFD0, size: 0x8, addend: 0x0, symName: __ZNSt3__113basic_ostreamIcNS_11char_traitsIcEEElsB7v160006EPFRS3_S4_E, symObjAddr: 0x1898, symBinAddr: 0x1000034AC, symSize: 0x2C }
  - { offsetInCU: 0x1C004, offset: 0x1C004, size: 0x8, addend: 0x0, symName: __ZNSt3__16vectorIlNS_9allocatorIlEEED1B7v160006Ev, symObjAddr: 0x191C, symBinAddr: 0x100003530, symSize: 0x2C }
  - { offsetInCU: 0x1C02E, offset: 0x1C02E, size: 0x8, addend: 0x0, symName: __ZNSt3__16vectorINS0_IcNS_9allocatorIcEEEENS1_IS3_EEED1B7v160006Ev, symObjAddr: 0x1948, symBinAddr: 0x10000355C, symSize: 0x2C }
  - { offsetInCU: 0x1C05D, offset: 0x1C05D, size: 0x8, addend: 0x0, symName: __ZNSt3__114basic_ifstreamIcNS_11char_traitsIcEEED1Ev, symObjAddr: 0x1974, symBinAddr: 0x100003588, symSize: 0x40 }
  - { offsetInCU: 0x1C08A, offset: 0x1C08A, size: 0x8, addend: 0x0, symName: __ZNSt3__112basic_stringIcNS_11char_traitsIcEENS_9allocatorIcEEEC2B7v160006Ev, symObjAddr: 0x19B4, symBinAddr: 0x1000035C8, symSize: 0x54 }
  - { offsetInCU: 0x1C0BA, offset: 0x1C0BA, size: 0x8, addend: 0x0, symName: __ZNSt3__117__compressed_pairINS_12basic_stringIcNS_11char_traitsIcEENS_9allocatorIcEEE5__repES5_EC1B7v160006INS_18__default_init_tagESA_EEOT_OT0_, symObjAddr: 0x1A08, symBinAddr: 0x10000361C, symSize: 0x3C }
  - { offsetInCU: 0x1C112, offset: 0x1C112, size: 0x8, addend: 0x0, symName: __ZNSt3__112basic_stringIcNS_11char_traitsIcEENS_9allocatorIcEEE14__default_initB7v160006Ev, symObjAddr: 0x1A60, symBinAddr: 0x100003674, symSize: 0x40 }
  - { offsetInCU: 0x1C138, offset: 0x1C138, size: 0x8, addend: 0x0, symName: __ZNSt3__117__compressed_pairINS_12basic_stringIcNS_11char_traitsIcEENS_9allocatorIcEEE5__repES5_EC2B7v160006INS_18__default_init_tagESA_EEOT_OT0_, symObjAddr: 0x1AA0, symBinAddr: 0x1000036B4, symSize: 0x3C }
  - { offsetInCU: 0x1C190, offset: 0x1C190, size: 0x8, addend: 0x0, symName: __ZNSt3__122__compressed_pair_elemINS_12basic_stringIcNS_11char_traitsIcEENS_9allocatorIcEEE5__repELi0ELb0EEC2B7v160006ENS_18__default_init_tagE, symObjAddr: 0x1ADC, symBinAddr: 0x1000036F0, symSize: 0x14 }
  - { offsetInCU: 0x1C1C4, offset: 0x1C1C4, size: 0x8, addend: 0x0, symName: __ZNSt3__122__compressed_pair_elemINS_9allocatorIcEELi1ELb1EEC2B7v160006ENS_18__default_init_tagE, symObjAddr: 0x1AF0, symBinAddr: 0x100003704, symSize: 0x2C }
  - { offsetInCU: 0x1C1F8, offset: 0x1C1F8, size: 0x8, addend: 0x0, symName: __ZNSt3__19allocatorIcEC2B7v160006Ev, symObjAddr: 0x1B1C, symBinAddr: 0x100003730, symSize: 0x2C }
  - { offsetInCU: 0x1C222, offset: 0x1C222, size: 0x8, addend: 0x0, symName: __ZNSt3__116__non_trivial_ifILb1ENS_9allocatorIcEEEC2B7v160006Ev, symObjAddr: 0x1B48, symBinAddr: 0x10000375C, symSize: 0x14 }
  - { offsetInCU: 0x1C24C, offset: 0x1C24C, size: 0x8, addend: 0x0, symName: __ZNSt3__117__compressed_pairINS_12basic_stringIcNS_11char_traitsIcEENS_9allocatorIcEEE5__repES5_E5firstB7v160006Ev, symObjAddr: 0x1B5C, symBinAddr: 0x100003770, symSize: 0x24 }
  - { offsetInCU: 0x1C272, offset: 0x1C272, size: 0x8, addend: 0x0, symName: __ZNSt3__122__compressed_pair_elemINS_12basic_stringIcNS_11char_traitsIcEENS_9allocatorIcEEE5__repELi0ELb0EE5__getB7v160006Ev, symObjAddr: 0x1B80, symBinAddr: 0x100003794, symSize: 0x14 }
  - { offsetInCU: 0x1C298, offset: 0x1C298, size: 0x8, addend: 0x0, symName: __ZNSt3__16vectorINS0_IcNS_9allocatorIcEEEENS1_IS3_EEEC2B7v160006Ev, symObjAddr: 0x1B94, symBinAddr: 0x1000037A8, symSize: 0x58 }
  - { offsetInCU: 0x1C2C8, offset: 0x1C2C8, size: 0x8, addend: 0x0, symName: __ZNSt3__117__compressed_pairIPNS_6vectorIcNS_9allocatorIcEEEENS2_IS4_EEEC1B7v160006IDnNS_18__default_init_tagEEEOT_OT0_, symObjAddr: 0x1BEC, symBinAddr: 0x100003800, symSize: 0x3C }
  - { offsetInCU: 0x1C320, offset: 0x1C320, size: 0x8, addend: 0x0, symName: __ZNSt3__117__compressed_pairIPNS_6vectorIcNS_9allocatorIcEEEENS2_IS4_EEEC2B7v160006IDnNS_18__default_init_tagEEEOT_OT0_, symObjAddr: 0x1C38, symBinAddr: 0x10000384C, symSize: 0x40 }
  - { offsetInCU: 0x1C378, offset: 0x1C378, size: 0x8, addend: 0x0, symName: __ZNSt3__122__compressed_pair_elemIPNS_6vectorIcNS_9allocatorIcEEEELi0ELb0EEC2B7v160006IDnvEEOT_, symObjAddr: 0x1C78, symBinAddr: 0x10000388C, symSize: 0x1C }
  - { offsetInCU: 0x1C3BA, offset: 0x1C3BA, size: 0x8, addend: 0x0, symName: __ZNSt3__122__compressed_pair_elemINS_9allocatorINS_6vectorIcNS1_IcEEEEEELi1ELb1EEC2B7v160006ENS_18__default_init_tagE, symObjAddr: 0x1C94, symBinAddr: 0x1000038A8, symSize: 0x2C }
  - { offsetInCU: 0x1C3EE, offset: 0x1C3EE, size: 0x8, addend: 0x0, symName: __ZNSt3__19allocatorINS_6vectorIcNS0_IcEEEEEC2B7v160006Ev, symObjAddr: 0x1CC0, symBinAddr: 0x1000038D4, symSize: 0x2C }
  - { offsetInCU: 0x1C418, offset: 0x1C418, size: 0x8, addend: 0x0, symName: __ZNSt3__116__non_trivial_ifILb1ENS_9allocatorINS_6vectorIcNS1_IcEEEEEEEC2B7v160006Ev, symObjAddr: 0x1CEC, symBinAddr: 0x100003900, symSize: 0x14 }
  - { offsetInCU: 0x1C442, offset: 0x1C442, size: 0x8, addend: 0x0, symName: __ZNSt3__16vectorIcNS_9allocatorIcEEEC2B7v160006Ev, symObjAddr: 0x1D00, symBinAddr: 0x100003914, symSize: 0x58 }
  - { offsetInCU: 0x1C46C, offset: 0x1C46C, size: 0x8, addend: 0x0, symName: __ZNSt3__117__compressed_pairIPcNS_9allocatorIcEEEC1B7v160006IDnNS_18__default_init_tagEEEOT_OT0_, symObjAddr: 0x1D58, symBinAddr: 0x10000396C, symSize: 0x3C }
  - { offsetInCU: 0x1C4C4, offset: 0x1C4C4, size: 0x8, addend: 0x0, symName: __ZNSt3__117__compressed_pairIPcNS_9allocatorIcEEEC2B7v160006IDnNS_18__default_init_tagEEEOT_OT0_, symObjAddr: 0x1DA4, symBinAddr: 0x1000039B8, symSize: 0x40 }
  - { offsetInCU: 0x1C51C, offset: 0x1C51C, size: 0x8, addend: 0x0, symName: __ZNSt3__122__compressed_pair_elemIPcLi0ELb0EEC2B7v160006IDnvEEOT_, symObjAddr: 0x1DE4, symBinAddr: 0x1000039F8, symSize: 0x1C }
  - { offsetInCU: 0x1C55E, offset: 0x1C55E, size: 0x8, addend: 0x0, symName: __ZNKSt3__112basic_stringIcNS_11char_traitsIcEENS_9allocatorIcEEE4sizeB7v160006Ev, symObjAddr: 0x1E00, symBinAddr: 0x100003A14, symSize: 0x54 }
  - { offsetInCU: 0x1C584, offset: 0x1C584, size: 0x8, addend: 0x0, symName: __ZNKSt3__112basic_stringIcNS_11char_traitsIcEENS_9allocatorIcEEE9__is_longB7v160006Ev, symObjAddr: 0x1E54, symBinAddr: 0x100003A68, symSize: 0x38 }
  - { offsetInCU: 0x1C5AA, offset: 0x1C5AA, size: 0x8, addend: 0x0, symName: __ZNKSt3__112basic_stringIcNS_11char_traitsIcEENS_9allocatorIcEEE15__get_long_sizeB7v160006Ev, symObjAddr: 0x1E8C, symBinAddr: 0x100003AA0, symSize: 0x28 }
  - { offsetInCU: 0x1C5D0, offset: 0x1C5D0, size: 0x8, addend: 0x0, symName: __ZNKSt3__112basic_stringIcNS_11char_traitsIcEENS_9allocatorIcEEE16__get_short_sizeB7v160006Ev, symObjAddr: 0x1EB4, symBinAddr: 0x100003AC8, symSize: 0x34 }
  - { offsetInCU: 0x1C5F6, offset: 0x1C5F6, size: 0x8, addend: 0x0, symName: __ZNKSt3__117__compressed_pairINS_12basic_stringIcNS_11char_traitsIcEENS_9allocatorIcEEE5__repES5_E5firstB7v160006Ev, symObjAddr: 0x1EE8, symBinAddr: 0x100003AFC, symSize: 0x24 }
  - { offsetInCU: 0x1C61C, offset: 0x1C61C, size: 0x8, addend: 0x0, symName: __ZNKSt3__122__compressed_pair_elemINS_12basic_stringIcNS_11char_traitsIcEENS_9allocatorIcEEE5__repELi0ELb0EE5__getB7v160006Ev, symObjAddr: 0x1F0C, symBinAddr: 0x100003B20, symSize: 0x14 }
  - { offsetInCU: 0x1C642, offset: 0x1C642, size: 0x8, addend: 0x0, symName: __ZNSt3__16vectorIcNS_9allocatorIcEEE9__end_capB7v160006Ev, symObjAddr: 0x1F20, symBinAddr: 0x100003B34, symSize: 0x28 }
  - { offsetInCU: 0x1C668, offset: 0x1C668, size: 0x8, addend: 0x0, symName: __ZNSt3__16vectorIcNS_9allocatorIcEEE22__construct_one_at_endB7v160006IJRKcEEEvDpOT_, symObjAddr: 0x1F48, symBinAddr: 0x100003B5C, symSize: 0x90 }
  - { offsetInCU: 0x1C6B7, offset: 0x1C6B7, size: 0x8, addend: 0x0, symName: __ZNSt3__16vectorIcNS_9allocatorIcEEE21__push_back_slow_pathIRKcEEvOT_, symObjAddr: 0x1FD8, symBinAddr: 0x100003BEC, symSize: 0xD8 }
  - { offsetInCU: 0x1C715, offset: 0x1C715, size: 0x8, addend: 0x0, symName: __ZNSt3__117__compressed_pairIPcNS_9allocatorIcEEE5firstB7v160006Ev, symObjAddr: 0x20B0, symBinAddr: 0x100003CC4, symSize: 0x24 }
  - { offsetInCU: 0x1C73B, offset: 0x1C73B, size: 0x8, addend: 0x0, symName: __ZNSt3__122__compressed_pair_elemIPcLi0ELb0EE5__getB7v160006Ev, symObjAddr: 0x20D4, symBinAddr: 0x100003CE8, symSize: 0x14 }
  - { offsetInCU: 0x1C77C, offset: 0x1C77C, size: 0x8, addend: 0x0, symName: __ZNSt3__16vectorIcNS_9allocatorIcEEE21_ConstructTransactionC1B7v160006ERS3_m, symObjAddr: 0x20E8, symBinAddr: 0x100003CFC, symSize: 0x3C }
  - { offsetInCU: 0x1C7C4, offset: 0x1C7C4, size: 0x8, addend: 0x0, symName: __ZNSt3__116allocator_traitsINS_9allocatorIcEEE9constructB7v160006IcJRKcEvvEEvRS2_PT_DpOT0_, symObjAddr: 0x2124, symBinAddr: 0x100003D38, symSize: 0x30 }
  - { offsetInCU: 0x1C818, offset: 0x1C818, size: 0x8, addend: 0x0, symName: __ZNSt3__16vectorIcNS_9allocatorIcEEE7__allocB7v160006Ev, symObjAddr: 0x2154, symBinAddr: 0x100003D68, symSize: 0x28 }
  - { offsetInCU: 0x1C83E, offset: 0x1C83E, size: 0x8, addend: 0x0, symName: __ZNSt3__16vectorIcNS_9allocatorIcEEE21_ConstructTransactionD1B7v160006Ev, symObjAddr: 0x2190, symBinAddr: 0x100003DA4, symSize: 0x2C }
  - { offsetInCU: 0x1C868, offset: 0x1C868, size: 0x8, addend: 0x0, symName: __ZNSt3__16vectorIcNS_9allocatorIcEEE21_ConstructTransactionC2B7v160006ERS3_m, symObjAddr: 0x21BC, symBinAddr: 0x100003DD0, symSize: 0x44 }
  - { offsetInCU: 0x1C8B0, offset: 0x1C8B0, size: 0x8, addend: 0x0, symName: __ZNSt3__117__compressed_pairIPcNS_9allocatorIcEEE6secondB7v160006Ev, symObjAddr: 0x222C, symBinAddr: 0x100003E40, symSize: 0x24 }
  - { offsetInCU: 0x1C8D6, offset: 0x1C8D6, size: 0x8, addend: 0x0, symName: __ZNSt3__122__compressed_pair_elemINS_9allocatorIcEELi1ELb1EE5__getB7v160006Ev, symObjAddr: 0x2250, symBinAddr: 0x100003E64, symSize: 0x14 }
  - { offsetInCU: 0x1C8FC, offset: 0x1C8FC, size: 0x8, addend: 0x0, symName: __ZNSt3__16vectorIcNS_9allocatorIcEEE21_ConstructTransactionD2B7v160006Ev, symObjAddr: 0x2264, symBinAddr: 0x100003E78, symSize: 0x20 }
  - { offsetInCU: 0x1C926, offset: 0x1C926, size: 0x8, addend: 0x0, symName: __ZNKSt3__16vectorIcNS_9allocatorIcEEE11__recommendB7v160006Em, symObjAddr: 0x2284, symBinAddr: 0x100003E98, symSize: 0xB4 }
  - { offsetInCU: 0x1C97B, offset: 0x1C97B, size: 0x8, addend: 0x0, symName: __ZNSt3__114__split_bufferIcRNS_9allocatorIcEEEC1EmmS3_, symObjAddr: 0x2338, symBinAddr: 0x100003F4C, symSize: 0x44 }
  - { offsetInCU: 0x1C9D1, offset: 0x1C9D1, size: 0x8, addend: 0x0, symName: __ZNSt3__114__split_bufferIcRNS_9allocatorIcEEED1Ev, symObjAddr: 0x2494, symBinAddr: 0x1000040A8, symSize: 0x2C }
  - { offsetInCU: 0x1C9FD, offset: 0x1C9FD, size: 0x8, addend: 0x0, symName: __ZNKSt3__16vectorIcNS_9allocatorIcEEE8max_sizeEv, symObjAddr: 0x24C0, symBinAddr: 0x1000040D4, symSize: 0x60 }
  - { offsetInCU: 0x1CA25, offset: 0x1CA25, size: 0x8, addend: 0x0, symName: __ZNKSt3__16vectorIcNS_9allocatorIcEEE20__throw_length_errorB7v160006Ev, symObjAddr: 0x2520, symBinAddr: 0x100004134, symSize: 0x1C }
  - { offsetInCU: 0x1CA4B, offset: 0x1CA4B, size: 0x8, addend: 0x0, symName: __ZNKSt3__16vectorIcNS_9allocatorIcEEE8capacityB7v160006Ev, symObjAddr: 0x253C, symBinAddr: 0x100004150, symSize: 0x38 }
  - { offsetInCU: 0x1CA7C, offset: 0x1CA7C, size: 0x8, addend: 0x0, symName: __ZNSt3__116allocator_traitsINS_9allocatorIcEEE8max_sizeB7v160006IS2_vvEEmRKS2_, symObjAddr: 0x25CC, symBinAddr: 0x1000041E0, symSize: 0x28 }
  - { offsetInCU: 0x1CAA7, offset: 0x1CAA7, size: 0x8, addend: 0x0, symName: __ZNKSt3__16vectorIcNS_9allocatorIcEEE7__allocB7v160006Ev, symObjAddr: 0x25F4, symBinAddr: 0x100004208, symSize: 0x28 }
  - { offsetInCU: 0x1CACD, offset: 0x1CACD, size: 0x8, addend: 0x0, symName: __ZNSt3__114numeric_limitsIlE3maxB7v160006Ev, symObjAddr: 0x261C, symBinAddr: 0x100004230, symSize: 0x14 }
  - { offsetInCU: 0x1CAF6, offset: 0x1CAF6, size: 0x8, addend: 0x0, symName: __ZNKSt3__16__lessImmEclB7v160006ERKmS3_, symObjAddr: 0x2684, symBinAddr: 0x100004298, symSize: 0x34 }
  - { offsetInCU: 0x1CB38, offset: 0x1CB38, size: 0x8, addend: 0x0, symName: __ZNSt3__114numeric_limitsImE3maxB7v160006Ev, symObjAddr: 0x26B8, symBinAddr: 0x1000042CC, symSize: 0x14 }
  - { offsetInCU: 0x1CB4C, offset: 0x1CB4C, size: 0x8, addend: 0x0, symName: __ZNSt3__123__libcpp_numeric_limitsImLb1EE3maxB7v160006Ev, symObjAddr: 0x26CC, symBinAddr: 0x1000042E0, symSize: 0x8 }
  - { offsetInCU: 0x1CB60, offset: 0x1CB60, size: 0x8, addend: 0x0, symName: __ZNKSt3__117__compressed_pairIPcNS_9allocatorIcEEE6secondB7v160006Ev, symObjAddr: 0x26D4, symBinAddr: 0x1000042E8, symSize: 0x24 }
  - { offsetInCU: 0x1CB86, offset: 0x1CB86, size: 0x8, addend: 0x0, symName: __ZNKSt3__122__compressed_pair_elemINS_9allocatorIcEELi1ELb1EE5__getB7v160006Ev, symObjAddr: 0x26F8, symBinAddr: 0x10000430C, symSize: 0x14 }
  - { offsetInCU: 0x1CBAC, offset: 0x1CBAC, size: 0x8, addend: 0x0, symName: __ZNSt3__123__libcpp_numeric_limitsIlLb1EE3maxB7v160006Ev, symObjAddr: 0x270C, symBinAddr: 0x100004320, symSize: 0x8 }
  - { offsetInCU: 0x1CBC0, offset: 0x1CBC0, size: 0x8, addend: 0x0, symName: __ZNSt12length_errorC1B7v160006EPKc, symObjAddr: 0x2778, symBinAddr: 0x10000438C, symSize: 0x34 }
  - { offsetInCU: 0x1CBF8, offset: 0x1CBF8, size: 0x8, addend: 0x0, symName: __ZNSt12length_errorC2B7v160006EPKc, symObjAddr: 0x27AC, symBinAddr: 0x1000043C0, symSize: 0x4C }
  - { offsetInCU: 0x1CC30, offset: 0x1CC30, size: 0x8, addend: 0x0, symName: __ZNKSt3__16vectorIcNS_9allocatorIcEEE9__end_capB7v160006Ev, symObjAddr: 0x27F8, symBinAddr: 0x10000440C, symSize: 0x28 }
  - { offsetInCU: 0x1CC56, offset: 0x1CC56, size: 0x8, addend: 0x0, symName: __ZNKSt3__117__compressed_pairIPcNS_9allocatorIcEEE5firstB7v160006Ev, symObjAddr: 0x2820, symBinAddr: 0x100004434, symSize: 0x24 }
  - { offsetInCU: 0x1CC7C, offset: 0x1CC7C, size: 0x8, addend: 0x0, symName: __ZNKSt3__122__compressed_pair_elemIPcLi0ELb0EE5__getB7v160006Ev, symObjAddr: 0x2844, symBinAddr: 0x100004458, symSize: 0x14 }
  - { offsetInCU: 0x1CCA2, offset: 0x1CCA2, size: 0x8, addend: 0x0, symName: __ZNSt3__114__split_bufferIcRNS_9allocatorIcEEEC2EmmS3_, symObjAddr: 0x28AC, symBinAddr: 0x1000044C0, symSize: 0xD4 }
  - { offsetInCU: 0x1CD15, offset: 0x1CD15, size: 0x8, addend: 0x0, symName: __ZNSt3__117__compressed_pairIPcRNS_9allocatorIcEEEC1B7v160006IDnS4_EEOT_OT0_, symObjAddr: 0x2980, symBinAddr: 0x100004594, symSize: 0x3C }
  - { offsetInCU: 0x1CD6D, offset: 0x1CD6D, size: 0x8, addend: 0x0, symName: __ZNSt3__114__split_bufferIcRNS_9allocatorIcEEE7__allocB7v160006Ev, symObjAddr: 0x29FC, symBinAddr: 0x100004610, symSize: 0x28 }
  - { offsetInCU: 0x1CD93, offset: 0x1CD93, size: 0x8, addend: 0x0, symName: __ZNSt3__114__split_bufferIcRNS_9allocatorIcEEE9__end_capB7v160006Ev, symObjAddr: 0x2A24, symBinAddr: 0x100004638, symSize: 0x28 }
  - { offsetInCU: 0x1CDB9, offset: 0x1CDB9, size: 0x8, addend: 0x0, symName: __ZNSt3__117__compressed_pairIPcRNS_9allocatorIcEEEC2B7v160006IDnS4_EEOT_OT0_, symObjAddr: 0x2A4C, symBinAddr: 0x100004660, symSize: 0x48 }
  - { offsetInCU: 0x1CE11, offset: 0x1CE11, size: 0x8, addend: 0x0, symName: __ZNSt3__122__compressed_pair_elemIRNS_9allocatorIcEELi1ELb0EEC2B7v160006IS3_vEEOT_, symObjAddr: 0x2A94, symBinAddr: 0x1000046A8, symSize: 0x20 }
  - { offsetInCU: 0x1CE53, offset: 0x1CE53, size: 0x8, addend: 0x0, symName: __ZNSt3__19allocatorIcE8allocateB7v160006Em, symObjAddr: 0x2AB4, symBinAddr: 0x1000046C8, symSize: 0x58 }
  - { offsetInCU: 0x1CE87, offset: 0x1CE87, size: 0x8, addend: 0x0, symName: __ZNSt3__117__compressed_pairIPcRNS_9allocatorIcEEE6secondB7v160006Ev, symObjAddr: 0x2C10, symBinAddr: 0x100004824, symSize: 0x28 }
  - { offsetInCU: 0x1CEAD, offset: 0x1CEAD, size: 0x8, addend: 0x0, symName: __ZNSt3__122__compressed_pair_elemIRNS_9allocatorIcEELi1ELb0EE5__getB7v160006Ev, symObjAddr: 0x2C38, symBinAddr: 0x10000484C, symSize: 0x18 }
  - { offsetInCU: 0x1CED3, offset: 0x1CED3, size: 0x8, addend: 0x0, symName: __ZNSt3__117__compressed_pairIPcRNS_9allocatorIcEEE5firstB7v160006Ev, symObjAddr: 0x2C50, symBinAddr: 0x100004864, symSize: 0x24 }
  - { offsetInCU: 0x1CEF9, offset: 0x1CEF9, size: 0x8, addend: 0x0, symName: __ZNKSt3__16vectorIcNS_9allocatorIcEEE17__annotate_deleteB7v160006Ev, symObjAddr: 0x2C74, symBinAddr: 0x100004888, symSize: 0xB8 }
  - { offsetInCU: 0x1CF1F, offset: 0x1CF1F, size: 0x8, addend: 0x0, symName: __ZNSt3__116reverse_iteratorIPcEC1B7v160006ES1_, symObjAddr: 0x2DA4, symBinAddr: 0x1000049B8, symSize: 0x34 }
  - { offsetInCU: 0x1CF57, offset: 0x1CF57, size: 0x8, addend: 0x0, symName: __ZNKSt3__116reverse_iteratorIPcE4baseB7v160006Ev, symObjAddr: 0x2DD8, symBinAddr: 0x1000049EC, symSize: 0x18 }
  - { offsetInCU: 0x1CF7D, offset: 0x1CF7D, size: 0x8, addend: 0x0, symName: __ZNKSt3__16vectorIcNS_9allocatorIcEEE14__annotate_newB7v160006Em, symObjAddr: 0x2E2C, symBinAddr: 0x100004A40, symSize: 0xAC }
  - { offsetInCU: 0x1CFB2, offset: 0x1CFB2, size: 0x8, addend: 0x0, symName: __ZNKSt3__16vectorIcNS_9allocatorIcEEE31__annotate_contiguous_containerB7v160006EPKvS5_S5_S5_, symObjAddr: 0x2EE8, symBinAddr: 0x100004AFC, symSize: 0x20 }
  - { offsetInCU: 0x1D004, offset: 0x1D004, size: 0x8, addend: 0x0, symName: __ZNKSt3__16vectorIcNS_9allocatorIcEEE4dataB7v160006Ev, symObjAddr: 0x2F08, symBinAddr: 0x100004B1C, symSize: 0x28 }
  - { offsetInCU: 0x1D050, offset: 0x1D050, size: 0x8, addend: 0x0, symName: __ZNKSt3__111__move_loopINS_17_ClassicAlgPolicyEEclB7v160006INS_16reverse_iteratorIPcEES6_S6_EENS_4pairIT_T1_EES8_T0_S9_, symObjAddr: 0x31E8, symBinAddr: 0x100004DFC, symSize: 0xA0 }
  - { offsetInCU: 0x1D0BB, offset: 0x1D0BB, size: 0x8, addend: 0x0, symName: __ZNSt3__119__unwrap_range_implINS_16reverse_iteratorIPcEES3_E8__unwrapB7v160006ES3_S3_, symObjAddr: 0x33D4, symBinAddr: 0x100004FE8, symSize: 0x84 }
  - { offsetInCU: 0x1D0F2, offset: 0x1D0F2, size: 0x8, addend: 0x0, symName: __ZNSt3__14pairINS_16reverse_iteratorIPcEES3_EC1B7v160006IS3_S3_LPv0EEEOT_OT0_, symObjAddr: 0x3458, symBinAddr: 0x10000506C, symSize: 0x3C }
  - { offsetInCU: 0x1D150, offset: 0x1D150, size: 0x8, addend: 0x0, symName: __ZNSt3__14pairINS_16reverse_iteratorIPcEES3_EC2B7v160006IS3_S3_LPv0EEEOT_OT0_, symObjAddr: 0x3494, symBinAddr: 0x1000050A8, symSize: 0x34 }
  - { offsetInCU: 0x1D1B4, offset: 0x1D1B4, size: 0x8, addend: 0x0, symName: __ZNSt3__18_IterOpsINS_17_ClassicAlgPolicyEE11__iter_moveB7v160006IRNS_16reverse_iteratorIPcEEEENS_9enable_ifIXsr12is_referenceIDTdeclsr3stdE7declvalIRT_EEEEE5valueEDTclsr3stdE4movedeclsr3stdE7declvalISA_EEEEE4typeEOS9_, symObjAddr: 0x3510, symBinAddr: 0x100005124, symSize: 0x28 }
  - { offsetInCU: 0x1D1E0, offset: 0x1D1E0, size: 0x8, addend: 0x0, symName: __ZNKSt3__116reverse_iteratorIPcEdeB7v160006Ev, symObjAddr: 0x3538, symBinAddr: 0x10000514C, symSize: 0x28 }
  - { offsetInCU: 0x1D214, offset: 0x1D214, size: 0x8, addend: 0x0, symName: __ZNSt3__116reverse_iteratorIPcEppB7v160006Ev, symObjAddr: 0x3560, symBinAddr: 0x100005174, symSize: 0x20 }
  - { offsetInCU: 0x1D23A, offset: 0x1D23A, size: 0x8, addend: 0x0, symName: __ZNSt3__18_IterOpsINS_17_ClassicAlgPolicyEE25__validate_iter_referenceB7v160006IRNS_16reverse_iteratorIPcEEEEvv, symObjAddr: 0x3580, symBinAddr: 0x100005194, symSize: 0x4 }
  - { offsetInCU: 0x1D258, offset: 0x1D258, size: 0x8, addend: 0x0, symName: __ZNSt3__118__unwrap_iter_implINS_16reverse_iteratorIPcEELb0EE8__unwrapB7v160006ES3_, symObjAddr: 0x3584, symBinAddr: 0x100005198, symSize: 0x24 }
  - { offsetInCU: 0x1D27B, offset: 0x1D27B, size: 0x8, addend: 0x0, symName: __ZNSt3__119__unwrap_range_implINS_16reverse_iteratorIPcEES3_E8__rewrapB7v160006ES3_S3_, symObjAddr: 0x35A8, symBinAddr: 0x1000051BC, symSize: 0x5C }
  - { offsetInCU: 0x1D2AC, offset: 0x1D2AC, size: 0x8, addend: 0x0, symName: __ZNSt3__118__unwrap_iter_implINS_16reverse_iteratorIPcEELb0EE8__rewrapB7v160006ES3_S3_, symObjAddr: 0x3604, symBinAddr: 0x100005218, symSize: 0x2C }
  - { offsetInCU: 0x1D2D9, offset: 0x1D2D9, size: 0x8, addend: 0x0, symName: __ZNSt3__116reverse_iteratorIPcEC2B7v160006ES1_, symObjAddr: 0x3630, symBinAddr: 0x100005244, symSize: 0x28 }
  - { offsetInCU: 0x1D311, offset: 0x1D311, size: 0x8, addend: 0x0, symName: __ZNSt3__114__split_bufferIcRNS_9allocatorIcEEED2Ev, symObjAddr: 0x3658, symBinAddr: 0x10000526C, symSize: 0x8C }
  - { offsetInCU: 0x1D33D, offset: 0x1D33D, size: 0x8, addend: 0x0, symName: __ZNSt3__114__split_bufferIcRNS_9allocatorIcEEE5clearB7v160006Ev, symObjAddr: 0x36E4, symBinAddr: 0x1000052F8, symSize: 0x28 }
  - { offsetInCU: 0x1D363, offset: 0x1D363, size: 0x8, addend: 0x0, symName: __ZNSt3__116allocator_traitsINS_9allocatorIcEEE10deallocateB7v160006ERS2_Pcm, symObjAddr: 0x370C, symBinAddr: 0x100005320, symSize: 0x34 }
  - { offsetInCU: 0x1D3A5, offset: 0x1D3A5, size: 0x8, addend: 0x0, symName: __ZNKSt3__114__split_bufferIcRNS_9allocatorIcEEE8capacityB7v160006Ev, symObjAddr: 0x3740, symBinAddr: 0x100005354, symSize: 0x38 }
  - { offsetInCU: 0x1D3CB, offset: 0x1D3CB, size: 0x8, addend: 0x0, symName: __ZNSt3__114__split_bufferIcRNS_9allocatorIcEEE17__destruct_at_endB7v160006EPc, symObjAddr: 0x3778, symBinAddr: 0x10000538C, symSize: 0x2C }
  - { offsetInCU: 0x1D3FF, offset: 0x1D3FF, size: 0x8, addend: 0x0, symName: __ZNSt3__114__split_bufferIcRNS_9allocatorIcEEE17__destruct_at_endB7v160006EPcNS_17integral_constantIbLb0EEE, symObjAddr: 0x37A4, symBinAddr: 0x1000053B8, symSize: 0x80 }
  - { offsetInCU: 0x1D43F, offset: 0x1D43F, size: 0x8, addend: 0x0, symName: __ZNSt3__116allocator_traitsINS_9allocatorIcEEE7destroyB7v160006IcvvEEvRS2_PT_, symObjAddr: 0x3824, symBinAddr: 0x100005438, symSize: 0x28 }
  - { offsetInCU: 0x1D479, offset: 0x1D479, size: 0x8, addend: 0x0, symName: __ZNSt3__19allocatorIcE10deallocateB7v160006EPcm, symObjAddr: 0x3880, symBinAddr: 0x100005494, symSize: 0x40 }
  - { offsetInCU: 0x1D4BB, offset: 0x1D4BB, size: 0x8, addend: 0x0, symName: __ZNKSt3__114__split_bufferIcRNS_9allocatorIcEEE9__end_capB7v160006Ev, symObjAddr: 0x39C8, symBinAddr: 0x1000055DC, symSize: 0x28 }
  - { offsetInCU: 0x1D4E1, offset: 0x1D4E1, size: 0x8, addend: 0x0, symName: __ZNKSt3__117__compressed_pairIPcRNS_9allocatorIcEEE5firstB7v160006Ev, symObjAddr: 0x39F0, symBinAddr: 0x100005604, symSize: 0x24 }
  - { offsetInCU: 0x1D507, offset: 0x1D507, size: 0x8, addend: 0x0, symName: __ZNSt3__16vectorINS0_IcNS_9allocatorIcEEEENS1_IS3_EEE9__end_capB7v160006Ev, symObjAddr: 0x3A14, symBinAddr: 0x100005628, symSize: 0x28 }
  - { offsetInCU: 0x1D52D, offset: 0x1D52D, size: 0x8, addend: 0x0, symName: __ZNSt3__16vectorINS0_IcNS_9allocatorIcEEEENS1_IS3_EEE22__construct_one_at_endB7v160006IJRKS3_EEEvDpOT_, symObjAddr: 0x3A3C, symBinAddr: 0x100005650, symSize: 0x90 }
  - { offsetInCU: 0x1D57C, offset: 0x1D57C, size: 0x8, addend: 0x0, symName: __ZNSt3__16vectorINS0_IcNS_9allocatorIcEEEENS1_IS3_EEE21__push_back_slow_pathIRKS3_EEvOT_, symObjAddr: 0x3ACC, symBinAddr: 0x1000056E0, symSize: 0xD8 }
  - { offsetInCU: 0x1D5DA, offset: 0x1D5DA, size: 0x8, addend: 0x0, symName: __ZNSt3__117__compressed_pairIPNS_6vectorIcNS_9allocatorIcEEEENS2_IS4_EEE5firstB7v160006Ev, symObjAddr: 0x3BA4, symBinAddr: 0x1000057B8, symSize: 0x24 }
  - { offsetInCU: 0x1D600, offset: 0x1D600, size: 0x8, addend: 0x0, symName: __ZNSt3__122__compressed_pair_elemIPNS_6vectorIcNS_9allocatorIcEEEELi0ELb0EE5__getB7v160006Ev, symObjAddr: 0x3BC8, symBinAddr: 0x1000057DC, symSize: 0x14 }
  - { offsetInCU: 0x1D641, offset: 0x1D641, size: 0x8, addend: 0x0, symName: __ZNSt3__16vectorINS0_IcNS_9allocatorIcEEEENS1_IS3_EEE21_ConstructTransactionC1B7v160006ERS5_m, symObjAddr: 0x3BDC, symBinAddr: 0x1000057F0, symSize: 0x3C }
  - { offsetInCU: 0x1D689, offset: 0x1D689, size: 0x8, addend: 0x0, symName: __ZNSt3__116allocator_traitsINS_9allocatorINS_6vectorIcNS1_IcEEEEEEE9constructB7v160006IS4_JRKS4_EvvEEvRS5_PT_DpOT0_, symObjAddr: 0x3C18, symBinAddr: 0x10000582C, symSize: 0x30 }
  - { offsetInCU: 0x1D6DD, offset: 0x1D6DD, size: 0x8, addend: 0x0, symName: __ZNSt3__16vectorINS0_IcNS_9allocatorIcEEEENS1_IS3_EEE7__allocB7v160006Ev, symObjAddr: 0x3C48, symBinAddr: 0x10000585C, symSize: 0x28 }
  - { offsetInCU: 0x1D703, offset: 0x1D703, size: 0x8, addend: 0x0, symName: __ZNSt3__16vectorINS0_IcNS_9allocatorIcEEEENS1_IS3_EEE21_ConstructTransactionD1B7v160006Ev, symObjAddr: 0x3C84, symBinAddr: 0x100005898, symSize: 0x2C }
  - { offsetInCU: 0x1D72D, offset: 0x1D72D, size: 0x8, addend: 0x0, symName: __ZNSt3__16vectorINS0_IcNS_9allocatorIcEEEENS1_IS3_EEE21_ConstructTransactionC2B7v160006ERS5_m, symObjAddr: 0x3CB0, symBinAddr: 0x1000058C4, symSize: 0x4C }
  - { offsetInCU: 0x1D775, offset: 0x1D775, size: 0x8, addend: 0x0, symName: __ZNSt3__117__compressed_pairIPNS_6vectorIcNS_9allocatorIcEEEENS2_IS4_EEE6secondB7v160006Ev, symObjAddr: 0x3D38, symBinAddr: 0x10000594C, symSize: 0x24 }
  - { offsetInCU: 0x1D79B, offset: 0x1D79B, size: 0x8, addend: 0x0, symName: __ZNSt3__122__compressed_pair_elemINS_9allocatorINS_6vectorIcNS1_IcEEEEEELi1ELb1EE5__getB7v160006Ev, symObjAddr: 0x3D5C, symBinAddr: 0x100005970, symSize: 0x14 }
  - { offsetInCU: 0x1D7C1, offset: 0x1D7C1, size: 0x8, addend: 0x0, symName: __ZNSt3__16vectorINS0_IcNS_9allocatorIcEEEENS1_IS3_EEE21_ConstructTransactionD2B7v160006Ev, symObjAddr: 0x3D70, symBinAddr: 0x100005984, symSize: 0x20 }
  - { offsetInCU: 0x1D7EB, offset: 0x1D7EB, size: 0x8, addend: 0x0, symName: __ZNKSt3__16vectorINS0_IcNS_9allocatorIcEEEENS1_IS3_EEE11__recommendB7v160006Em, symObjAddr: 0x3D90, symBinAddr: 0x1000059A4, symSize: 0xB4 }
  - { offsetInCU: 0x1D840, offset: 0x1D840, size: 0x8, addend: 0x0, symName: __ZNSt3__114__split_bufferINS_6vectorIcNS_9allocatorIcEEEERNS2_IS4_EEEC1EmmS6_, symObjAddr: 0x3E44, symBinAddr: 0x100005A58, symSize: 0x44 }
  - { offsetInCU: 0x1D896, offset: 0x1D896, size: 0x8, addend: 0x0, symName: __ZNSt3__114__split_bufferINS_6vectorIcNS_9allocatorIcEEEERNS2_IS4_EEED1Ev, symObjAddr: 0x3FA0, symBinAddr: 0x100005BB4, symSize: 0x2C }
  - { offsetInCU: 0x1D8C2, offset: 0x1D8C2, size: 0x8, addend: 0x0, symName: __ZNKSt3__16vectorINS0_IcNS_9allocatorIcEEEENS1_IS3_EEE8max_sizeEv, symObjAddr: 0x3FCC, symBinAddr: 0x100005BE0, symSize: 0x60 }
  - { offsetInCU: 0x1D8EA, offset: 0x1D8EA, size: 0x8, addend: 0x0, symName: __ZNKSt3__16vectorINS0_IcNS_9allocatorIcEEEENS1_IS3_EEE20__throw_length_errorB7v160006Ev, symObjAddr: 0x402C, symBinAddr: 0x100005C40, symSize: 0x1C }
  - { offsetInCU: 0x1D910, offset: 0x1D910, size: 0x8, addend: 0x0, symName: __ZNKSt3__16vectorINS0_IcNS_9allocatorIcEEEENS1_IS3_EEE8capacityB7v160006Ev, symObjAddr: 0x4048, symBinAddr: 0x100005C5C, symSize: 0x40 }
  - { offsetInCU: 0x1D941, offset: 0x1D941, size: 0x8, addend: 0x0, symName: __ZNSt3__116allocator_traitsINS_9allocatorINS_6vectorIcNS1_IcEEEEEEE8max_sizeB7v160006IS5_vvEEmRKS5_, symObjAddr: 0x4088, symBinAddr: 0x100005C9C, symSize: 0x28 }
  - { offsetInCU: 0x1D96C, offset: 0x1D96C, size: 0x8, addend: 0x0, symName: __ZNKSt3__16vectorINS0_IcNS_9allocatorIcEEEENS1_IS3_EEE7__allocB7v160006Ev, symObjAddr: 0x40B0, symBinAddr: 0x100005CC4, symSize: 0x28 }
  - { offsetInCU: 0x1D992, offset: 0x1D992, size: 0x8, addend: 0x0, symName: __ZNKSt3__117__compressed_pairIPNS_6vectorIcNS_9allocatorIcEEEENS2_IS4_EEE6secondB7v160006Ev, symObjAddr: 0x40D8, symBinAddr: 0x100005CEC, symSize: 0x24 }
  - { offsetInCU: 0x1D9B8, offset: 0x1D9B8, size: 0x8, addend: 0x0, symName: __ZNKSt3__122__compressed_pair_elemINS_9allocatorINS_6vectorIcNS1_IcEEEEEELi1ELb1EE5__getB7v160006Ev, symObjAddr: 0x40FC, symBinAddr: 0x100005D10, symSize: 0x14 }
  - { offsetInCU: 0x1D9DE, offset: 0x1D9DE, size: 0x8, addend: 0x0, symName: __ZNKSt3__16vectorINS0_IcNS_9allocatorIcEEEENS1_IS3_EEE9__end_capB7v160006Ev, symObjAddr: 0x4110, symBinAddr: 0x100005D24, symSize: 0x28 }
  - { offsetInCU: 0x1DA04, offset: 0x1DA04, size: 0x8, addend: 0x0, symName: __ZNKSt3__117__compressed_pairIPNS_6vectorIcNS_9allocatorIcEEEENS2_IS4_EEE5firstB7v160006Ev, symObjAddr: 0x4138, symBinAddr: 0x100005D4C, symSize: 0x24 }
  - { offsetInCU: 0x1DA2A, offset: 0x1DA2A, size: 0x8, addend: 0x0, symName: __ZNKSt3__122__compressed_pair_elemIPNS_6vectorIcNS_9allocatorIcEEEELi0ELb0EE5__getB7v160006Ev, symObjAddr: 0x415C, symBinAddr: 0x100005D70, symSize: 0x14 }
  - { offsetInCU: 0x1DA50, offset: 0x1DA50, size: 0x8, addend: 0x0, symName: __ZNSt3__114__split_bufferINS_6vectorIcNS_9allocatorIcEEEERNS2_IS4_EEEC2EmmS6_, symObjAddr: 0x4170, symBinAddr: 0x100005D84, symSize: 0xE0 }
  - { offsetInCU: 0x1DAC3, offset: 0x1DAC3, size: 0x8, addend: 0x0, symName: __ZNSt3__117__compressed_pairIPNS_6vectorIcNS_9allocatorIcEEEERNS2_IS4_EEEC1B7v160006IDnS7_EEOT_OT0_, symObjAddr: 0x4250, symBinAddr: 0x100005E64, symSize: 0x3C }
  - { offsetInCU: 0x1DB1B, offset: 0x1DB1B, size: 0x8, addend: 0x0, symName: __ZNSt3__114__split_bufferINS_6vectorIcNS_9allocatorIcEEEERNS2_IS4_EEE7__allocB7v160006Ev, symObjAddr: 0x42CC, symBinAddr: 0x100005EE0, symSize: 0x28 }
  - { offsetInCU: 0x1DB41, offset: 0x1DB41, size: 0x8, addend: 0x0, symName: __ZNSt3__114__split_bufferINS_6vectorIcNS_9allocatorIcEEEERNS2_IS4_EEE9__end_capB7v160006Ev, symObjAddr: 0x42F4, symBinAddr: 0x100005F08, symSize: 0x28 }
  - { offsetInCU: 0x1DB67, offset: 0x1DB67, size: 0x8, addend: 0x0, symName: __ZNSt3__117__compressed_pairIPNS_6vectorIcNS_9allocatorIcEEEERNS2_IS4_EEEC2B7v160006IDnS7_EEOT_OT0_, symObjAddr: 0x431C, symBinAddr: 0x100005F30, symSize: 0x48 }
  - { offsetInCU: 0x1DBBF, offset: 0x1DBBF, size: 0x8, addend: 0x0, symName: __ZNSt3__122__compressed_pair_elemIRNS_9allocatorINS_6vectorIcNS1_IcEEEEEELi1ELb0EEC2B7v160006IS6_vEEOT_, symObjAddr: 0x4364, symBinAddr: 0x100005F78, symSize: 0x20 }
  - { offsetInCU: 0x1DC01, offset: 0x1DC01, size: 0x8, addend: 0x0, symName: __ZNSt3__19allocatorINS_6vectorIcNS0_IcEEEEE8allocateB7v160006Em, symObjAddr: 0x4384, symBinAddr: 0x100005F98, symSize: 0x5C }
  - { offsetInCU: 0x1DC35, offset: 0x1DC35, size: 0x8, addend: 0x0, symName: __ZNSt3__117__compressed_pairIPNS_6vectorIcNS_9allocatorIcEEEERNS2_IS4_EEE6secondB7v160006Ev, symObjAddr: 0x43E0, symBinAddr: 0x100005FF4, symSize: 0x28 }
  - { offsetInCU: 0x1DC5B, offset: 0x1DC5B, size: 0x8, addend: 0x0, symName: __ZNSt3__122__compressed_pair_elemIRNS_9allocatorINS_6vectorIcNS1_IcEEEEEELi1ELb0EE5__getB7v160006Ev, symObjAddr: 0x4408, symBinAddr: 0x10000601C, symSize: 0x18 }
  - { offsetInCU: 0x1DC81, offset: 0x1DC81, size: 0x8, addend: 0x0, symName: __ZNSt3__117__compressed_pairIPNS_6vectorIcNS_9allocatorIcEEEERNS2_IS4_EEE5firstB7v160006Ev, symObjAddr: 0x4420, symBinAddr: 0x100006034, symSize: 0x24 }
  - { offsetInCU: 0x1DCA7, offset: 0x1DCA7, size: 0x8, addend: 0x0, symName: __ZNKSt3__16vectorINS0_IcNS_9allocatorIcEEEENS1_IS3_EEE17__annotate_deleteB7v160006Ev, symObjAddr: 0x4444, symBinAddr: 0x100006058, symSize: 0xD4 }
  - { offsetInCU: 0x1DCCD, offset: 0x1DCCD, size: 0x8, addend: 0x0, symName: __ZNSt3__116reverse_iteratorIPNS_6vectorIcNS_9allocatorIcEEEEEC1B7v160006ES5_, symObjAddr: 0x4644, symBinAddr: 0x100006258, symSize: 0x34 }
  - { offsetInCU: 0x1DD05, offset: 0x1DD05, size: 0x8, addend: 0x0, symName: __ZNKSt3__116reverse_iteratorIPNS_6vectorIcNS_9allocatorIcEEEEE4baseB7v160006Ev, symObjAddr: 0x4678, symBinAddr: 0x10000628C, symSize: 0x18 }
  - { offsetInCU: 0x1DD2B, offset: 0x1DD2B, size: 0x8, addend: 0x0, symName: __ZNKSt3__16vectorINS0_IcNS_9allocatorIcEEEENS1_IS3_EEE14__annotate_newB7v160006Em, symObjAddr: 0x46CC, symBinAddr: 0x1000062E0, symSize: 0xC8 }
  - { offsetInCU: 0x1DD60, offset: 0x1DD60, size: 0x8, addend: 0x0, symName: __ZNKSt3__16vectorINS0_IcNS_9allocatorIcEEEENS1_IS3_EEE31__annotate_contiguous_containerB7v160006EPKvS7_S7_S7_, symObjAddr: 0x47A4, symBinAddr: 0x1000063B8, symSize: 0x20 }
  - { offsetInCU: 0x1DDB2, offset: 0x1DDB2, size: 0x8, addend: 0x0, symName: __ZNKSt3__16vectorINS0_IcNS_9allocatorIcEEEENS1_IS3_EEE4dataB7v160006Ev, symObjAddr: 0x47C4, symBinAddr: 0x1000063D8, symSize: 0x28 }
  - { offsetInCU: 0x1DDD8, offset: 0x1DDD8, size: 0x8, addend: 0x0, symName: __ZNSt3__129_AllocatorDestroyRangeReverseINS_9allocatorINS_6vectorIcNS1_IcEEEEEENS_16reverse_iteratorIPS4_EEEC1B7v160006ERS5_RS8_SB_, symObjAddr: 0x4838, symBinAddr: 0x10000644C, symSize: 0x44 }
  - { offsetInCU: 0x1DE2F, offset: 0x1DE2F, size: 0x8, addend: 0x0, symName: __ZNSt3__116allocator_traitsINS_9allocatorINS_6vectorIcNS1_IcEEEEEEE9constructB7v160006IS4_JS4_EvvEEvRS5_PT_DpOT0_, symObjAddr: 0x48C4, symBinAddr: 0x1000064D8, symSize: 0x30 }
  - { offsetInCU: 0x1DE83, offset: 0x1DE83, size: 0x8, addend: 0x0, symName: __ZNKSt3__116reverse_iteratorIPNS_6vectorIcNS_9allocatorIcEEEEEdeB7v160006Ev, symObjAddr: 0x4918, symBinAddr: 0x10000652C, symSize: 0x28 }
  - { offsetInCU: 0x1DEB7, offset: 0x1DEB7, size: 0x8, addend: 0x0, symName: __ZNSt3__116reverse_iteratorIPNS_6vectorIcNS_9allocatorIcEEEEEppB7v160006Ev, symObjAddr: 0x4940, symBinAddr: 0x100006554, symSize: 0x20 }
  - { offsetInCU: 0x1DEDD, offset: 0x1DEDD, size: 0x8, addend: 0x0, symName: __ZNSt3__128__exception_guard_exceptionsINS_29_AllocatorDestroyRangeReverseINS_9allocatorINS_6vectorIcNS2_IcEEEEEENS_16reverse_iteratorIPS5_EEEEE10__completeB7v160006Ev, symObjAddr: 0x4960, symBinAddr: 0x100006574, symSize: 0x1C }
  - { offsetInCU: 0x1DF03, offset: 0x1DF03, size: 0x8, addend: 0x0, symName: __ZNSt3__128__exception_guard_exceptionsINS_29_AllocatorDestroyRangeReverseINS_9allocatorINS_6vectorIcNS2_IcEEEEEENS_16reverse_iteratorIPS5_EEEEED1B7v160006Ev, symObjAddr: 0x497C, symBinAddr: 0x100006590, symSize: 0x2C }
  - { offsetInCU: 0x1DF2D, offset: 0x1DF2D, size: 0x8, addend: 0x0, symName: __ZNSt3__128__exception_guard_exceptionsINS_29_AllocatorDestroyRangeReverseINS_9allocatorINS_6vectorIcNS2_IcEEEEEENS_16reverse_iteratorIPS5_EEEEEC1B7v160006ESA_, symObjAddr: 0x49A8, symBinAddr: 0x1000065BC, symSize: 0x34 }
  - { offsetInCU: 0x1DF66, offset: 0x1DF66, size: 0x8, addend: 0x0, symName: __ZNSt3__128__exception_guard_exceptionsINS_29_AllocatorDestroyRangeReverseINS_9allocatorINS_6vectorIcNS2_IcEEEEEENS_16reverse_iteratorIPS5_EEEEEC2B7v160006ESA_, symObjAddr: 0x49DC, symBinAddr: 0x1000065F0, symSize: 0x30 }
  - { offsetInCU: 0x1DF9F, offset: 0x1DF9F, size: 0x8, addend: 0x0, symName: __ZNSt3__129_AllocatorDestroyRangeReverseINS_9allocatorINS_6vectorIcNS1_IcEEEEEENS_16reverse_iteratorIPS4_EEEC2B7v160006ERS5_RS8_SB_, symObjAddr: 0x4A0C, symBinAddr: 0x100006620, symSize: 0x38 }
  - { offsetInCU: 0x1DFF6, offset: 0x1DFF6, size: 0x8, addend: 0x0, symName: __ZNSt3__16vectorIcNS_9allocatorIcEEEC1B7v160006EOS3_, symObjAddr: 0x4A80, symBinAddr: 0x100006694, symSize: 0x34 }
  - { offsetInCU: 0x1E031, offset: 0x1E031, size: 0x8, addend: 0x0, symName: __ZNSt3__16vectorIcNS_9allocatorIcEEEC2B7v160006EOS3_, symObjAddr: 0x4AB4, symBinAddr: 0x1000066C8, symSize: 0xDC }
  - { offsetInCU: 0x1E072, offset: 0x1E072, size: 0x8, addend: 0x0, symName: __ZNSt3__117__compressed_pairIPcNS_9allocatorIcEEEC1B7v160006IDnS3_EEOT_OT0_, symObjAddr: 0x4B90, symBinAddr: 0x1000067A4, symSize: 0x3C }
  - { offsetInCU: 0x1E0CA, offset: 0x1E0CA, size: 0x8, addend: 0x0, symName: __ZNSt3__117__compressed_pairIPcNS_9allocatorIcEEEC2B7v160006IDnS3_EEOT_OT0_, symObjAddr: 0x4BE0, symBinAddr: 0x1000067F4, symSize: 0x44 }
  - { offsetInCU: 0x1E122, offset: 0x1E122, size: 0x8, addend: 0x0, symName: __ZNSt3__122__compressed_pair_elemINS_9allocatorIcEELi1ELb1EEC2B7v160006IS2_vEEOT_, symObjAddr: 0x4C24, symBinAddr: 0x100006838, symSize: 0x18 }
  - { offsetInCU: 0x1E16A, offset: 0x1E16A, size: 0x8, addend: 0x0, symName: __ZNSt3__119__to_address_helperINS_16reverse_iteratorIPNS_6vectorIcNS_9allocatorIcEEEEEEvE6__callB7v160006ERKS7_, symObjAddr: 0x4C3C, symBinAddr: 0x100006850, symSize: 0x38 }
  - { offsetInCU: 0x1E18D, offset: 0x1E18D, size: 0x8, addend: 0x0, symName: __ZNKSt3__116reverse_iteratorIPNS_6vectorIcNS_9allocatorIcEEEEEptB7v160006Ev, symObjAddr: 0x4C74, symBinAddr: 0x100006888, symSize: 0x2C }
  - { offsetInCU: 0x1E1B3, offset: 0x1E1B3, size: 0x8, addend: 0x0, symName: __ZNSt3__128__exception_guard_exceptionsINS_29_AllocatorDestroyRangeReverseINS_9allocatorINS_6vectorIcNS2_IcEEEEEENS_16reverse_iteratorIPS5_EEEEED2B7v160006Ev, symObjAddr: 0x4D84, symBinAddr: 0x100006998, symSize: 0x50 }
  - { offsetInCU: 0x1E1DD, offset: 0x1E1DD, size: 0x8, addend: 0x0, symName: __ZNKSt3__129_AllocatorDestroyRangeReverseINS_9allocatorINS_6vectorIcNS1_IcEEEEEENS_16reverse_iteratorIPS4_EEEclB7v160006Ev, symObjAddr: 0x4DD4, symBinAddr: 0x1000069E8, symSize: 0xB4 }
  - { offsetInCU: 0x1E204, offset: 0x1E204, size: 0x8, addend: 0x0, symName: __ZNSt3__116reverse_iteratorINS0_IPNS_6vectorIcNS_9allocatorIcEEEEEEEC1B7v160006ES6_, symObjAddr: 0x4EF8, symBinAddr: 0x100006B0C, symSize: 0x3C }
  - { offsetInCU: 0x1E23C, offset: 0x1E23C, size: 0x8, addend: 0x0, symName: __ZNSt3__116allocator_traitsINS_9allocatorINS_6vectorIcNS1_IcEEEEEEE7destroyB7v160006IS4_vvEEvRS5_PT_, symObjAddr: 0x4F94, symBinAddr: 0x100006BA8, symSize: 0x28 }
  - { offsetInCU: 0x1E276, offset: 0x1E276, size: 0x8, addend: 0x0, symName: __ZNSt3__116reverse_iteratorINS0_IPNS_6vectorIcNS_9allocatorIcEEEEEEEppB7v160006Ev, symObjAddr: 0x4FE0, symBinAddr: 0x100006BF4, symSize: 0x30 }
  - { offsetInCU: 0x1E29C, offset: 0x1E29C, size: 0x8, addend: 0x0, symName: __ZNKSt3__116reverse_iteratorINS0_IPNS_6vectorIcNS_9allocatorIcEEEEEEE4baseB7v160006Ev, symObjAddr: 0x5010, symBinAddr: 0x100006C24, symSize: 0x24 }
  - { offsetInCU: 0x1E2C8, offset: 0x1E2C8, size: 0x8, addend: 0x0, symName: __ZNSt3__119__to_address_helperINS_16reverse_iteratorINS1_IPNS_6vectorIcNS_9allocatorIcEEEEEEEEvE6__callB7v160006ERKS8_, symObjAddr: 0x507C, symBinAddr: 0x100006C90, symSize: 0x38 }
  - { offsetInCU: 0x1E2EB, offset: 0x1E2EB, size: 0x8, addend: 0x0, symName: __ZNKSt3__116reverse_iteratorINS0_IPNS_6vectorIcNS_9allocatorIcEEEEEEEptB7v160006Ev, symObjAddr: 0x50B4, symBinAddr: 0x100006CC8, symSize: 0x4C }
  - { offsetInCU: 0x1E311, offset: 0x1E311, size: 0x8, addend: 0x0, symName: __ZNSt3__116reverse_iteratorIPNS_6vectorIcNS_9allocatorIcEEEEEpLB7v160006El, symObjAddr: 0x51DC, symBinAddr: 0x100006DF0, symSize: 0x30 }
  - { offsetInCU: 0x1E345, offset: 0x1E345, size: 0x8, addend: 0x0, symName: __ZNSt3__116reverse_iteratorIPNS_6vectorIcNS_9allocatorIcEEEEEmmB7v160006Ev, symObjAddr: 0x520C, symBinAddr: 0x100006E20, symSize: 0x20 }
  - { offsetInCU: 0x1E36B, offset: 0x1E36B, size: 0x8, addend: 0x0, symName: __ZNSt3__116reverse_iteratorINS0_IPNS_6vectorIcNS_9allocatorIcEEEEEEEC2B7v160006ES6_, symObjAddr: 0x522C, symBinAddr: 0x100006E40, symSize: 0x2C }
  - { offsetInCU: 0x1E3A3, offset: 0x1E3A3, size: 0x8, addend: 0x0, symName: __ZNSt3__116reverse_iteratorIPNS_6vectorIcNS_9allocatorIcEEEEEC2B7v160006ES5_, symObjAddr: 0x5258, symBinAddr: 0x100006E6C, symSize: 0x28 }
  - { offsetInCU: 0x1E3DB, offset: 0x1E3DB, size: 0x8, addend: 0x0, symName: __ZNSt3__114__split_bufferINS_6vectorIcNS_9allocatorIcEEEERNS2_IS4_EEED2Ev, symObjAddr: 0x5280, symBinAddr: 0x100006E94, symSize: 0x8C }
  - { offsetInCU: 0x1E407, offset: 0x1E407, size: 0x8, addend: 0x0, symName: __ZNSt3__114__split_bufferINS_6vectorIcNS_9allocatorIcEEEERNS2_IS4_EEE5clearB7v160006Ev, symObjAddr: 0x530C, symBinAddr: 0x100006F20, symSize: 0x28 }
  - { offsetInCU: 0x1E42D, offset: 0x1E42D, size: 0x8, addend: 0x0, symName: __ZNSt3__116allocator_traitsINS_9allocatorINS_6vectorIcNS1_IcEEEEEEE10deallocateB7v160006ERS5_PS4_m, symObjAddr: 0x5334, symBinAddr: 0x100006F48, symSize: 0x34 }
  - { offsetInCU: 0x1E46F, offset: 0x1E46F, size: 0x8, addend: 0x0, symName: __ZNKSt3__114__split_bufferINS_6vectorIcNS_9allocatorIcEEEERNS2_IS4_EEE8capacityB7v160006Ev, symObjAddr: 0x5368, symBinAddr: 0x100006F7C, symSize: 0x40 }
  - { offsetInCU: 0x1E495, offset: 0x1E495, size: 0x8, addend: 0x0, symName: __ZNSt3__114__split_bufferINS_6vectorIcNS_9allocatorIcEEEERNS2_IS4_EEE17__destruct_at_endB7v160006EPS4_, symObjAddr: 0x53A8, symBinAddr: 0x100006FBC, symSize: 0x2C }
  - { offsetInCU: 0x1E4C9, offset: 0x1E4C9, size: 0x8, addend: 0x0, symName: __ZNSt3__114__split_bufferINS_6vectorIcNS_9allocatorIcEEEERNS2_IS4_EEE17__destruct_at_endB7v160006EPS4_NS_17integral_constantIbLb0EEE, symObjAddr: 0x53D4, symBinAddr: 0x100006FE8, symSize: 0x80 }
  - { offsetInCU: 0x1E509, offset: 0x1E509, size: 0x8, addend: 0x0, symName: __ZNSt3__19allocatorINS_6vectorIcNS0_IcEEEEE10deallocateB7v160006EPS3_m, symObjAddr: 0x5454, symBinAddr: 0x100007068, symSize: 0x44 }
  - { offsetInCU: 0x1E54B, offset: 0x1E54B, size: 0x8, addend: 0x0, symName: __ZNKSt3__114__split_bufferINS_6vectorIcNS_9allocatorIcEEEERNS2_IS4_EEE9__end_capB7v160006Ev, symObjAddr: 0x5498, symBinAddr: 0x1000070AC, symSize: 0x28 }
  - { offsetInCU: 0x1E571, offset: 0x1E571, size: 0x8, addend: 0x0, symName: __ZNKSt3__117__compressed_pairIPNS_6vectorIcNS_9allocatorIcEEEERNS2_IS4_EEE5firstB7v160006Ev, symObjAddr: 0x54C0, symBinAddr: 0x1000070D4, symSize: 0x24 }
  - { offsetInCU: 0x1E597, offset: 0x1E597, size: 0x8, addend: 0x0, symName: __ZNSt3__118basic_stringstreamIcNS_11char_traitsIcEENS_9allocatorIcEEED2Ev, symObjAddr: 0x54E4, symBinAddr: 0x1000070F8, symSize: 0x6C }
  - { offsetInCU: 0x1E5D1, offset: 0x1E5D1, size: 0x8, addend: 0x0, symName: __ZThn16_NSt3__118basic_stringstreamIcNS_11char_traitsIcEENS_9allocatorIcEEED1Ev, symObjAddr: 0x5550, symBinAddr: 0x100007164, symSize: 0x1C }
  - { offsetInCU: 0x1E5E8, offset: 0x1E5E8, size: 0x8, addend: 0x0, symName: __ZTv0_n24_NSt3__118basic_stringstreamIcNS_11char_traitsIcEENS_9allocatorIcEEED1Ev, symObjAddr: 0x556C, symBinAddr: 0x100007180, symSize: 0x28 }
  - { offsetInCU: 0x1E604, offset: 0x1E604, size: 0x8, addend: 0x0, symName: __ZNSt3__115basic_stringbufIcNS_11char_traitsIcEENS_9allocatorIcEEED1Ev, symObjAddr: 0x5594, symBinAddr: 0x1000071A8, symSize: 0x2C }
  - { offsetInCU: 0x1E631, offset: 0x1E631, size: 0x8, addend: 0x0, symName: __ZNSt3__115basic_stringbufIcNS_11char_traitsIcEENS_9allocatorIcEEED2Ev, symObjAddr: 0x55C0, symBinAddr: 0x1000071D4, symSize: 0x48 }
  - { offsetInCU: 0x1E65E, offset: 0x1E65E, size: 0x8, addend: 0x0, symName: __ZNSt3__16vectorIcNS_9allocatorIcEEED2B7v160006Ev, symObjAddr: 0x5608, symBinAddr: 0x10000721C, symSize: 0x44 }
  - { offsetInCU: 0x1E688, offset: 0x1E688, size: 0x8, addend: 0x0, symName: __ZNSt3__16vectorIcNS_9allocatorIcEEE16__destroy_vectorC1ERS3_, symObjAddr: 0x564C, symBinAddr: 0x100007260, symSize: 0x34 }
  - { offsetInCU: 0x1E6C1, offset: 0x1E6C1, size: 0x8, addend: 0x0, symName: __ZNSt3__16vectorIcNS_9allocatorIcEEE16__destroy_vectorclB7v160006Ev, symObjAddr: 0x5680, symBinAddr: 0x100007294, symSize: 0x9C }
  - { offsetInCU: 0x1E6E7, offset: 0x1E6E7, size: 0x8, addend: 0x0, symName: __ZNSt3__16vectorIcNS_9allocatorIcEEE16__destroy_vectorC2ERS3_, symObjAddr: 0x571C, symBinAddr: 0x100007330, symSize: 0x20 }
  - { offsetInCU: 0x1E720, offset: 0x1E720, size: 0x8, addend: 0x0, symName: __ZNSt3__16vectorIcNS_9allocatorIcEEE7__clearB7v160006Ev, symObjAddr: 0x574C, symBinAddr: 0x100007360, symSize: 0x28 }
  - { offsetInCU: 0x1E746, offset: 0x1E746, size: 0x8, addend: 0x0, symName: __ZNSt3__16vectorIcNS_9allocatorIcEEE22__base_destruct_at_endB7v160006EPc, symObjAddr: 0x5774, symBinAddr: 0x100007388, symSize: 0x8C }
  - { offsetInCU: 0x1E78A, offset: 0x1E78A, size: 0x8, addend: 0x0, symName: __ZNSt3__16vectorIlNS_9allocatorIlEEEC2B7v160006Ev, symObjAddr: 0x5800, symBinAddr: 0x100007414, symSize: 0x58 }
  - { offsetInCU: 0x1E7B4, offset: 0x1E7B4, size: 0x8, addend: 0x0, symName: __ZNSt3__117__compressed_pairIPlNS_9allocatorIlEEEC1B7v160006IDnNS_18__default_init_tagEEEOT_OT0_, symObjAddr: 0x5858, symBinAddr: 0x10000746C, symSize: 0x3C }
  - { offsetInCU: 0x1E80C, offset: 0x1E80C, size: 0x8, addend: 0x0, symName: __ZNSt3__117__compressed_pairIPlNS_9allocatorIlEEEC2B7v160006IDnNS_18__default_init_tagEEEOT_OT0_, symObjAddr: 0x58A4, symBinAddr: 0x1000074B8, symSize: 0x40 }
  - { offsetInCU: 0x1E864, offset: 0x1E864, size: 0x8, addend: 0x0, symName: __ZNSt3__122__compressed_pair_elemIPlLi0ELb0EEC2B7v160006IDnvEEOT_, symObjAddr: 0x58E4, symBinAddr: 0x1000074F8, symSize: 0x1C }
  - { offsetInCU: 0x1E8A6, offset: 0x1E8A6, size: 0x8, addend: 0x0, symName: __ZNSt3__122__compressed_pair_elemINS_9allocatorIlEELi1ELb1EEC2B7v160006ENS_18__default_init_tagE, symObjAddr: 0x5900, symBinAddr: 0x100007514, symSize: 0x2C }
  - { offsetInCU: 0x1E8DA, offset: 0x1E8DA, size: 0x8, addend: 0x0, symName: __ZNSt3__19allocatorIlEC2B7v160006Ev, symObjAddr: 0x592C, symBinAddr: 0x100007540, symSize: 0x2C }
  - { offsetInCU: 0x1E904, offset: 0x1E904, size: 0x8, addend: 0x0, symName: __ZNSt3__116__non_trivial_ifILb1ENS_9allocatorIlEEEC2B7v160006Ev, symObjAddr: 0x5958, symBinAddr: 0x10000756C, symSize: 0x14 }
  - { offsetInCU: 0x1E92E, offset: 0x1E92E, size: 0x8, addend: 0x0, symName: __ZNKSt3__16vectorINS0_IcNS_9allocatorIcEEEENS1_IS3_EEE20__throw_out_of_rangeB7v160006Ev, symObjAddr: 0x596C, symBinAddr: 0x100007580, symSize: 0x1C }
  - { offsetInCU: 0x1E954, offset: 0x1E954, size: 0x8, addend: 0x0, symName: __ZNSt12out_of_rangeC1B7v160006EPKc, symObjAddr: 0x59EC, symBinAddr: 0x100007600, symSize: 0x34 }
  - { offsetInCU: 0x1E98C, offset: 0x1E98C, size: 0x8, addend: 0x0, symName: __ZNSt12out_of_rangeC2B7v160006EPKc, symObjAddr: 0x5A20, symBinAddr: 0x100007634, symSize: 0x4C }
  - { offsetInCU: 0x1E9C4, offset: 0x1E9C4, size: 0x8, addend: 0x0, symName: __ZNSt3__16vectorIcNS_9allocatorIcEEEC2ERKS3_, symObjAddr: 0x5A6C, symBinAddr: 0x100007680, symSize: 0x110 }
  - { offsetInCU: 0x1EA23, offset: 0x1EA23, size: 0x8, addend: 0x0, symName: __ZNSt3__116allocator_traitsINS_9allocatorIcEEE37select_on_container_copy_constructionB7v160006IS2_vvEES2_RKS2_, symObjAddr: 0x5B7C, symBinAddr: 0x100007790, symSize: 0x10 }
  - { offsetInCU: 0x1EA52, offset: 0x1EA52, size: 0x8, addend: 0x0, symName: __ZNSt3__16vectorIcNS_9allocatorIcEEE11__vallocateB7v160006Em, symObjAddr: 0x5BCC, symBinAddr: 0x1000077E0, symSize: 0xAC }
  - { offsetInCU: 0x1EA96, offset: 0x1EA96, size: 0x8, addend: 0x0, symName: __ZNSt3__16vectorIcNS_9allocatorIcEEE18__construct_at_endIPcLi0EEEvT_S6_m, symObjAddr: 0x5C78, symBinAddr: 0x10000788C, symSize: 0x8C }
  - { offsetInCU: 0x1EB09, offset: 0x1EB09, size: 0x8, addend: 0x0, symName: __ZNSt3__128__exception_guard_exceptionsINS_6vectorIcNS_9allocatorIcEEE16__destroy_vectorEE10__completeB7v160006Ev, symObjAddr: 0x5D04, symBinAddr: 0x100007918, symSize: 0x1C }
  - { offsetInCU: 0x1EB2F, offset: 0x1EB2F, size: 0x8, addend: 0x0, symName: __ZNSt3__128__exception_guard_exceptionsINS_6vectorIcNS_9allocatorIcEEE16__destroy_vectorEED1B7v160006Ev, symObjAddr: 0x5D20, symBinAddr: 0x100007934, symSize: 0x2C }
  - { offsetInCU: 0x1EB59, offset: 0x1EB59, size: 0x8, addend: 0x0, symName: __ZNSt3__128__exception_guard_exceptionsINS_6vectorIcNS_9allocatorIcEEE16__destroy_vectorEEC1B7v160006ES5_, symObjAddr: 0x5D4C, symBinAddr: 0x100007960, symSize: 0x34 }
  - { offsetInCU: 0x1EB91, offset: 0x1EB91, size: 0x8, addend: 0x0, symName: __ZNSt3__128__exception_guard_exceptionsINS_6vectorIcNS_9allocatorIcEEE16__destroy_vectorEEC2B7v160006ES5_, symObjAddr: 0x5D80, symBinAddr: 0x100007994, symSize: 0x24 }
  - { offsetInCU: 0x1EBC9, offset: 0x1EBC9, size: 0x8, addend: 0x0, symName: __ZNSt3__129_AllocatorDestroyRangeReverseINS_9allocatorIcEEPcEC1B7v160006ERS2_RS3_S6_, symObjAddr: 0x5EE4, symBinAddr: 0x100007AF8, symSize: 0x44 }
  - { offsetInCU: 0x1EC20, offset: 0x1EC20, size: 0x8, addend: 0x0, symName: __ZNSt3__116allocator_traitsINS_9allocatorIcEEE9constructB7v160006IcJRcEvvEEvRS2_PT_DpOT0_, symObjAddr: 0x5F28, symBinAddr: 0x100007B3C, symSize: 0x30 }
  - { offsetInCU: 0x1EC74, offset: 0x1EC74, size: 0x8, addend: 0x0, symName: __ZNSt3__128__exception_guard_exceptionsINS_29_AllocatorDestroyRangeReverseINS_9allocatorIcEEPcEEE10__completeB7v160006Ev, symObjAddr: 0x5F58, symBinAddr: 0x100007B6C, symSize: 0x1C }
  - { offsetInCU: 0x1EC9A, offset: 0x1EC9A, size: 0x8, addend: 0x0, symName: __ZNSt3__128__exception_guard_exceptionsINS_29_AllocatorDestroyRangeReverseINS_9allocatorIcEEPcEEED1B7v160006Ev, symObjAddr: 0x5F74, symBinAddr: 0x100007B88, symSize: 0x2C }
  - { offsetInCU: 0x1ECC4, offset: 0x1ECC4, size: 0x8, addend: 0x0, symName: __ZNSt3__128__exception_guard_exceptionsINS_29_AllocatorDestroyRangeReverseINS_9allocatorIcEEPcEEEC1B7v160006ES5_, symObjAddr: 0x5FA0, symBinAddr: 0x100007BB4, symSize: 0x34 }
  - { offsetInCU: 0x1ECFD, offset: 0x1ECFD, size: 0x8, addend: 0x0, symName: __ZNSt3__128__exception_guard_exceptionsINS_29_AllocatorDestroyRangeReverseINS_9allocatorIcEEPcEEEC2B7v160006ES5_, symObjAddr: 0x5FD4, symBinAddr: 0x100007BE8, symSize: 0x30 }
  - { offsetInCU: 0x1ED36, offset: 0x1ED36, size: 0x8, addend: 0x0, symName: __ZNSt3__129_AllocatorDestroyRangeReverseINS_9allocatorIcEEPcEC2B7v160006ERS2_RS3_S6_, symObjAddr: 0x6004, symBinAddr: 0x100007C18, symSize: 0x38 }
  - { offsetInCU: 0x1ED8D, offset: 0x1ED8D, size: 0x8, addend: 0x0, symName: __ZNSt3__128__exception_guard_exceptionsINS_29_AllocatorDestroyRangeReverseINS_9allocatorIcEEPcEEED2B7v160006Ev, symObjAddr: 0x6068, symBinAddr: 0x100007C7C, symSize: 0x50 }
  - { offsetInCU: 0x1EDB7, offset: 0x1EDB7, size: 0x8, addend: 0x0, symName: __ZNKSt3__129_AllocatorDestroyRangeReverseINS_9allocatorIcEEPcEclB7v160006Ev, symObjAddr: 0x60B8, symBinAddr: 0x100007CCC, symSize: 0x68 }
  - { offsetInCU: 0x1EDE3, offset: 0x1EDE3, size: 0x8, addend: 0x0, symName: __ZNSt3__119__to_address_helperINS_16reverse_iteratorIPcEEvE6__callB7v160006ERKS3_, symObjAddr: 0x61B4, symBinAddr: 0x100007DC8, symSize: 0x38 }
  - { offsetInCU: 0x1EE06, offset: 0x1EE06, size: 0x8, addend: 0x0, symName: __ZNKSt3__116reverse_iteratorIPcEptB7v160006Ev, symObjAddr: 0x61EC, symBinAddr: 0x100007E00, symSize: 0x2C }
  - { offsetInCU: 0x1EE2C, offset: 0x1EE2C, size: 0x8, addend: 0x0, symName: __ZNSt3__128__exception_guard_exceptionsINS_6vectorIcNS_9allocatorIcEEE16__destroy_vectorEED2B7v160006Ev, symObjAddr: 0x62E0, symBinAddr: 0x100007EF4, symSize: 0x50 }
  - { offsetInCU: 0x1EE56, offset: 0x1EE56, size: 0x8, addend: 0x0, symName: __ZNKSt3__16vectorIcNS_9allocatorIcEEE20__throw_out_of_rangeB7v160006Ev, symObjAddr: 0x6330, symBinAddr: 0x100007F44, symSize: 0x1C }
  - { offsetInCU: 0x1EE7C, offset: 0x1EE7C, size: 0x8, addend: 0x0, symName: __ZNSt3__16vectorINS0_IcNS_9allocatorIcEEEENS1_IS3_EEE11__make_iterB7v160006EPS3_, symObjAddr: 0x634C, symBinAddr: 0x100007F60, symSize: 0x34 }
  - { offsetInCU: 0x1EEB1, offset: 0x1EEB1, size: 0x8, addend: 0x0, symName: __ZNSt3__111__wrap_iterIPNS_6vectorIcNS_9allocatorIcEEEEEC1B7v160006EPKvS5_, symObjAddr: 0x6380, symBinAddr: 0x100007F94, symSize: 0x3C }
  - { offsetInCU: 0x1EEF7, offset: 0x1EEF7, size: 0x8, addend: 0x0, symName: __ZNSt3__111__wrap_iterIPNS_6vectorIcNS_9allocatorIcEEEEEC2B7v160006EPKvS5_, symObjAddr: 0x63BC, symBinAddr: 0x100007FD0, symSize: 0x24 }
  - { offsetInCU: 0x1EF3D, offset: 0x1EF3D, size: 0x8, addend: 0x0, symName: __ZNKSt3__111__wrap_iterIPNS_6vectorIcNS_9allocatorIcEEEEE4baseB7v160006Ev, symObjAddr: 0x6428, symBinAddr: 0x10000803C, symSize: 0x18 }
  - { offsetInCU: 0x1EF63, offset: 0x1EF63, size: 0x8, addend: 0x0, symName: __ZNSt3__16vectorIlNS_9allocatorIlEEE9__end_capB7v160006Ev, symObjAddr: 0x6440, symBinAddr: 0x100008054, symSize: 0x28 }
  - { offsetInCU: 0x1EF8F, offset: 0x1EF8F, size: 0x8, addend: 0x0, symName: __ZNSt3__16vectorIlNS_9allocatorIlEEE22__construct_one_at_endB7v160006IJlEEEvDpOT_, symObjAddr: 0x6468, symBinAddr: 0x10000807C, symSize: 0x90 }
  - { offsetInCU: 0x1EFDE, offset: 0x1EFDE, size: 0x8, addend: 0x0, symName: __ZNSt3__16vectorIlNS_9allocatorIlEEE21__push_back_slow_pathIlEEvOT_, symObjAddr: 0x64F8, symBinAddr: 0x10000810C, symSize: 0xD8 }
  - { offsetInCU: 0x1F03C, offset: 0x1F03C, size: 0x8, addend: 0x0, symName: __ZNSt3__117__compressed_pairIPlNS_9allocatorIlEEE5firstB7v160006Ev, symObjAddr: 0x65D0, symBinAddr: 0x1000081E4, symSize: 0x24 }
  - { offsetInCU: 0x1F062, offset: 0x1F062, size: 0x8, addend: 0x0, symName: __ZNSt3__122__compressed_pair_elemIPlLi0ELb0EE5__getB7v160006Ev, symObjAddr: 0x65F4, symBinAddr: 0x100008208, symSize: 0x14 }
  - { offsetInCU: 0x1F0A3, offset: 0x1F0A3, size: 0x8, addend: 0x0, symName: __ZNSt3__16vectorIlNS_9allocatorIlEEE21_ConstructTransactionC1B7v160006ERS3_m, symObjAddr: 0x6608, symBinAddr: 0x10000821C, symSize: 0x3C }
  - { offsetInCU: 0x1F0EB, offset: 0x1F0EB, size: 0x8, addend: 0x0, symName: __ZNSt3__116allocator_traitsINS_9allocatorIlEEE9constructB7v160006IlJlEvvEEvRS2_PT_DpOT0_, symObjAddr: 0x6644, symBinAddr: 0x100008258, symSize: 0x30 }
  - { offsetInCU: 0x1F13F, offset: 0x1F13F, size: 0x8, addend: 0x0, symName: __ZNSt3__16vectorIlNS_9allocatorIlEEE7__allocB7v160006Ev, symObjAddr: 0x6674, symBinAddr: 0x100008288, symSize: 0x28 }
  - { offsetInCU: 0x1F165, offset: 0x1F165, size: 0x8, addend: 0x0, symName: __ZNSt3__16vectorIlNS_9allocatorIlEEE21_ConstructTransactionD1B7v160006Ev, symObjAddr: 0x66B0, symBinAddr: 0x1000082C4, symSize: 0x2C }
  - { offsetInCU: 0x1F18F, offset: 0x1F18F, size: 0x8, addend: 0x0, symName: __ZNSt3__16vectorIlNS_9allocatorIlEEE21_ConstructTransactionC2B7v160006ERS3_m, symObjAddr: 0x66DC, symBinAddr: 0x1000082F0, symSize: 0x44 }
  - { offsetInCU: 0x1F1D7, offset: 0x1F1D7, size: 0x8, addend: 0x0, symName: __ZNSt3__117__compressed_pairIPlNS_9allocatorIlEEE6secondB7v160006Ev, symObjAddr: 0x674C, symBinAddr: 0x100008360, symSize: 0x24 }
  - { offsetInCU: 0x1F1FD, offset: 0x1F1FD, size: 0x8, addend: 0x0, symName: __ZNSt3__122__compressed_pair_elemINS_9allocatorIlEELi1ELb1EE5__getB7v160006Ev, symObjAddr: 0x6770, symBinAddr: 0x100008384, symSize: 0x14 }
  - { offsetInCU: 0x1F223, offset: 0x1F223, size: 0x8, addend: 0x0, symName: __ZNSt3__16vectorIlNS_9allocatorIlEEE21_ConstructTransactionD2B7v160006Ev, symObjAddr: 0x6784, symBinAddr: 0x100008398, symSize: 0x20 }
  - { offsetInCU: 0x1F24D, offset: 0x1F24D, size: 0x8, addend: 0x0, symName: __ZNKSt3__16vectorIlNS_9allocatorIlEEE11__recommendB7v160006Em, symObjAddr: 0x67A4, symBinAddr: 0x1000083B8, symSize: 0xB4 }
  - { offsetInCU: 0x1F2A2, offset: 0x1F2A2, size: 0x8, addend: 0x0, symName: __ZNKSt3__16vectorIlNS_9allocatorIlEEE4sizeB7v160006Ev, symObjAddr: 0x6858, symBinAddr: 0x10000846C, symSize: 0x28 }
  - { offsetInCU: 0x1F2C8, offset: 0x1F2C8, size: 0x8, addend: 0x0, symName: __ZNSt3__114__split_bufferIlRNS_9allocatorIlEEEC1EmmS3_, symObjAddr: 0x6880, symBinAddr: 0x100008494, symSize: 0x44 }
  - { offsetInCU: 0x1F31E, offset: 0x1F31E, size: 0x8, addend: 0x0, symName: __ZNSt3__114__split_bufferIlRNS_9allocatorIlEEED1Ev, symObjAddr: 0x69DC, symBinAddr: 0x1000085F0, symSize: 0x2C }
  - { offsetInCU: 0x1F34A, offset: 0x1F34A, size: 0x8, addend: 0x0, symName: __ZNKSt3__16vectorIlNS_9allocatorIlEEE8max_sizeEv, symObjAddr: 0x6A08, symBinAddr: 0x10000861C, symSize: 0x60 }
  - { offsetInCU: 0x1F372, offset: 0x1F372, size: 0x8, addend: 0x0, symName: __ZNKSt3__16vectorIlNS_9allocatorIlEEE20__throw_length_errorB7v160006Ev, symObjAddr: 0x6A68, symBinAddr: 0x10000867C, symSize: 0x1C }
  - { offsetInCU: 0x1F398, offset: 0x1F398, size: 0x8, addend: 0x0, symName: __ZNKSt3__16vectorIlNS_9allocatorIlEEE8capacityB7v160006Ev, symObjAddr: 0x6A84, symBinAddr: 0x100008698, symSize: 0x40 }
  - { offsetInCU: 0x1F3C9, offset: 0x1F3C9, size: 0x8, addend: 0x0, symName: __ZNSt3__116allocator_traitsINS_9allocatorIlEEE8max_sizeB7v160006IS2_vvEEmRKS2_, symObjAddr: 0x6AC4, symBinAddr: 0x1000086D8, symSize: 0x28 }
  - { offsetInCU: 0x1F3F4, offset: 0x1F3F4, size: 0x8, addend: 0x0, symName: __ZNKSt3__16vectorIlNS_9allocatorIlEEE7__allocB7v160006Ev, symObjAddr: 0x6AEC, symBinAddr: 0x100008700, symSize: 0x28 }
  - { offsetInCU: 0x1F41A, offset: 0x1F41A, size: 0x8, addend: 0x0, symName: __ZNKSt3__117__compressed_pairIPlNS_9allocatorIlEEE6secondB7v160006Ev, symObjAddr: 0x6B14, symBinAddr: 0x100008728, symSize: 0x24 }
  - { offsetInCU: 0x1F440, offset: 0x1F440, size: 0x8, addend: 0x0, symName: __ZNKSt3__122__compressed_pair_elemINS_9allocatorIlEELi1ELb1EE5__getB7v160006Ev, symObjAddr: 0x6B38, symBinAddr: 0x10000874C, symSize: 0x14 }
  - { offsetInCU: 0x1F466, offset: 0x1F466, size: 0x8, addend: 0x0, symName: __ZNKSt3__16vectorIlNS_9allocatorIlEEE9__end_capB7v160006Ev, symObjAddr: 0x6B4C, symBinAddr: 0x100008760, symSize: 0x28 }
  - { offsetInCU: 0x1F48C, offset: 0x1F48C, size: 0x8, addend: 0x0, symName: __ZNKSt3__117__compressed_pairIPlNS_9allocatorIlEEE5firstB7v160006Ev, symObjAddr: 0x6B74, symBinAddr: 0x100008788, symSize: 0x24 }
  - { offsetInCU: 0x1F4B2, offset: 0x1F4B2, size: 0x8, addend: 0x0, symName: __ZNKSt3__122__compressed_pair_elemIPlLi0ELb0EE5__getB7v160006Ev, symObjAddr: 0x6B98, symBinAddr: 0x1000087AC, symSize: 0x14 }
  - { offsetInCU: 0x1F4D8, offset: 0x1F4D8, size: 0x8, addend: 0x0, symName: __ZNSt3__114__split_bufferIlRNS_9allocatorIlEEEC2EmmS3_, symObjAddr: 0x6BAC, symBinAddr: 0x1000087C0, symSize: 0xD4 }
  - { offsetInCU: 0x1F54B, offset: 0x1F54B, size: 0x8, addend: 0x0, symName: __ZNSt3__117__compressed_pairIPlRNS_9allocatorIlEEEC1B7v160006IDnS4_EEOT_OT0_, symObjAddr: 0x6C80, symBinAddr: 0x100008894, symSize: 0x3C }
  - { offsetInCU: 0x1F5A3, offset: 0x1F5A3, size: 0x8, addend: 0x0, symName: __ZNSt3__114__split_bufferIlRNS_9allocatorIlEEE7__allocB7v160006Ev, symObjAddr: 0x6CFC, symBinAddr: 0x100008910, symSize: 0x28 }
  - { offsetInCU: 0x1F5C9, offset: 0x1F5C9, size: 0x8, addend: 0x0, symName: __ZNSt3__114__split_bufferIlRNS_9allocatorIlEEE9__end_capB7v160006Ev, symObjAddr: 0x6D24, symBinAddr: 0x100008938, symSize: 0x28 }
  - { offsetInCU: 0x1F5EF, offset: 0x1F5EF, size: 0x8, addend: 0x0, symName: __ZNSt3__117__compressed_pairIPlRNS_9allocatorIlEEEC2B7v160006IDnS4_EEOT_OT0_, symObjAddr: 0x6D4C, symBinAddr: 0x100008960, symSize: 0x48 }
  - { offsetInCU: 0x1F647, offset: 0x1F647, size: 0x8, addend: 0x0, symName: __ZNSt3__122__compressed_pair_elemIRNS_9allocatorIlEELi1ELb0EEC2B7v160006IS3_vEEOT_, symObjAddr: 0x6D94, symBinAddr: 0x1000089A8, symSize: 0x20 }
  - { offsetInCU: 0x1F689, offset: 0x1F689, size: 0x8, addend: 0x0, symName: __ZNSt3__19allocatorIlE8allocateB7v160006Em, symObjAddr: 0x6DB4, symBinAddr: 0x1000089C8, symSize: 0x58 }
  - { offsetInCU: 0x1F6BD, offset: 0x1F6BD, size: 0x8, addend: 0x0, symName: __ZNSt3__117__compressed_pairIPlRNS_9allocatorIlEEE6secondB7v160006Ev, symObjAddr: 0x6E0C, symBinAddr: 0x100008A20, symSize: 0x28 }
  - { offsetInCU: 0x1F6E3, offset: 0x1F6E3, size: 0x8, addend: 0x0, symName: __ZNSt3__122__compressed_pair_elemIRNS_9allocatorIlEELi1ELb0EE5__getB7v160006Ev, symObjAddr: 0x6E34, symBinAddr: 0x100008A48, symSize: 0x18 }
  - { offsetInCU: 0x1F709, offset: 0x1F709, size: 0x8, addend: 0x0, symName: __ZNSt3__117__compressed_pairIPlRNS_9allocatorIlEEE5firstB7v160006Ev, symObjAddr: 0x6E4C, symBinAddr: 0x100008A60, symSize: 0x24 }
  - { offsetInCU: 0x1F72F, offset: 0x1F72F, size: 0x8, addend: 0x0, symName: __ZNKSt3__16vectorIlNS_9allocatorIlEEE17__annotate_deleteB7v160006Ev, symObjAddr: 0x6E70, symBinAddr: 0x100008A84, symSize: 0xB8 }
  - { offsetInCU: 0x1F755, offset: 0x1F755, size: 0x8, addend: 0x0, symName: __ZNSt3__116reverse_iteratorIPlEC1B7v160006ES1_, symObjAddr: 0x6FA0, symBinAddr: 0x100008BB4, symSize: 0x34 }
  - { offsetInCU: 0x1F78D, offset: 0x1F78D, size: 0x8, addend: 0x0, symName: __ZNKSt3__116reverse_iteratorIPlE4baseB7v160006Ev, symObjAddr: 0x6FD4, symBinAddr: 0x100008BE8, symSize: 0x18 }
  - { offsetInCU: 0x1F7B3, offset: 0x1F7B3, size: 0x8, addend: 0x0, symName: __ZNKSt3__16vectorIlNS_9allocatorIlEEE14__annotate_newB7v160006Em, symObjAddr: 0x7028, symBinAddr: 0x100008C3C, symSize: 0xAC }
  - { offsetInCU: 0x1F7E8, offset: 0x1F7E8, size: 0x8, addend: 0x0, symName: __ZNKSt3__16vectorIlNS_9allocatorIlEEE31__annotate_contiguous_containerB7v160006EPKvS5_S5_S5_, symObjAddr: 0x70E4, symBinAddr: 0x100008CF8, symSize: 0x20 }
  - { offsetInCU: 0x1F83A, offset: 0x1F83A, size: 0x8, addend: 0x0, symName: __ZNKSt3__16vectorIlNS_9allocatorIlEEE4dataB7v160006Ev, symObjAddr: 0x7104, symBinAddr: 0x100008D18, symSize: 0x28 }
  - { offsetInCU: 0x1F87C, offset: 0x1F87C, size: 0x8, addend: 0x0, symName: __ZNKSt3__111__move_loopINS_17_ClassicAlgPolicyEEclB7v160006INS_16reverse_iteratorIPlEES6_S6_EENS_4pairIT_T1_EES8_T0_S9_, symObjAddr: 0x73E4, symBinAddr: 0x100008FF8, symSize: 0xA0 }
  - { offsetInCU: 0x1F8E7, offset: 0x1F8E7, size: 0x8, addend: 0x0, symName: __ZNSt3__119__unwrap_range_implINS_16reverse_iteratorIPlEES3_E8__unwrapB7v160006ES3_S3_, symObjAddr: 0x75D0, symBinAddr: 0x1000091E4, symSize: 0x84 }
  - { offsetInCU: 0x1F91E, offset: 0x1F91E, size: 0x8, addend: 0x0, symName: __ZNSt3__14pairINS_16reverse_iteratorIPlEES3_EC1B7v160006IS3_S3_LPv0EEEOT_OT0_, symObjAddr: 0x7654, symBinAddr: 0x100009268, symSize: 0x3C }
  - { offsetInCU: 0x1F97C, offset: 0x1F97C, size: 0x8, addend: 0x0, symName: __ZNSt3__14pairINS_16reverse_iteratorIPlEES3_EC2B7v160006IS3_S3_LPv0EEEOT_OT0_, symObjAddr: 0x7690, symBinAddr: 0x1000092A4, symSize: 0x34 }
  - { offsetInCU: 0x1F9DA, offset: 0x1F9DA, size: 0x8, addend: 0x0, symName: __ZNSt3__18_IterOpsINS_17_ClassicAlgPolicyEE11__iter_moveB7v160006IRNS_16reverse_iteratorIPlEEEENS_9enable_ifIXsr12is_referenceIDTdeclsr3stdE7declvalIRT_EEEEE5valueEDTclsr3stdE4movedeclsr3stdE7declvalISA_EEEEE4typeEOS9_, symObjAddr: 0x770C, symBinAddr: 0x100009320, symSize: 0x28 }
  - { offsetInCU: 0x1FA06, offset: 0x1FA06, size: 0x8, addend: 0x0, symName: __ZNKSt3__116reverse_iteratorIPlEdeB7v160006Ev, symObjAddr: 0x7734, symBinAddr: 0x100009348, symSize: 0x28 }
  - { offsetInCU: 0x1FA3A, offset: 0x1FA3A, size: 0x8, addend: 0x0, symName: __ZNSt3__116reverse_iteratorIPlEppB7v160006Ev, symObjAddr: 0x775C, symBinAddr: 0x100009370, symSize: 0x20 }
  - { offsetInCU: 0x1FA60, offset: 0x1FA60, size: 0x8, addend: 0x0, symName: __ZNSt3__18_IterOpsINS_17_ClassicAlgPolicyEE25__validate_iter_referenceB7v160006IRNS_16reverse_iteratorIPlEEEEvv, symObjAddr: 0x777C, symBinAddr: 0x100009390, symSize: 0x4 }
  - { offsetInCU: 0x1FA7E, offset: 0x1FA7E, size: 0x8, addend: 0x0, symName: __ZNSt3__118__unwrap_iter_implINS_16reverse_iteratorIPlEELb0EE8__unwrapB7v160006ES3_, symObjAddr: 0x7780, symBinAddr: 0x100009394, symSize: 0x24 }
  - { offsetInCU: 0x1FAA1, offset: 0x1FAA1, size: 0x8, addend: 0x0, symName: __ZNSt3__119__unwrap_range_implINS_16reverse_iteratorIPlEES3_E8__rewrapB7v160006ES3_S3_, symObjAddr: 0x77A4, symBinAddr: 0x1000093B8, symSize: 0x5C }
  - { offsetInCU: 0x1FAD2, offset: 0x1FAD2, size: 0x8, addend: 0x0, symName: __ZNSt3__118__unwrap_iter_implINS_16reverse_iteratorIPlEELb0EE8__rewrapB7v160006ES3_S3_, symObjAddr: 0x7800, symBinAddr: 0x100009414, symSize: 0x2C }
  - { offsetInCU: 0x1FAFF, offset: 0x1FAFF, size: 0x8, addend: 0x0, symName: __ZNSt3__116reverse_iteratorIPlEC2B7v160006ES1_, symObjAddr: 0x782C, symBinAddr: 0x100009440, symSize: 0x28 }
  - { offsetInCU: 0x1FB37, offset: 0x1FB37, size: 0x8, addend: 0x0, symName: __ZNSt3__114__split_bufferIlRNS_9allocatorIlEEED2Ev, symObjAddr: 0x7854, symBinAddr: 0x100009468, symSize: 0x8C }
  - { offsetInCU: 0x1FB63, offset: 0x1FB63, size: 0x8, addend: 0x0, symName: __ZNSt3__114__split_bufferIlRNS_9allocatorIlEEE5clearB7v160006Ev, symObjAddr: 0x78E0, symBinAddr: 0x1000094F4, symSize: 0x28 }
  - { offsetInCU: 0x1FB89, offset: 0x1FB89, size: 0x8, addend: 0x0, symName: __ZNSt3__116allocator_traitsINS_9allocatorIlEEE10deallocateB7v160006ERS2_Plm, symObjAddr: 0x7908, symBinAddr: 0x10000951C, symSize: 0x34 }
  - { offsetInCU: 0x1FBCB, offset: 0x1FBCB, size: 0x8, addend: 0x0, symName: __ZNKSt3__114__split_bufferIlRNS_9allocatorIlEEE8capacityB7v160006Ev, symObjAddr: 0x793C, symBinAddr: 0x100009550, symSize: 0x40 }
  - { offsetInCU: 0x1FBF1, offset: 0x1FBF1, size: 0x8, addend: 0x0, symName: __ZNSt3__114__split_bufferIlRNS_9allocatorIlEEE17__destruct_at_endB7v160006EPl, symObjAddr: 0x797C, symBinAddr: 0x100009590, symSize: 0x2C }
  - { offsetInCU: 0x1FC25, offset: 0x1FC25, size: 0x8, addend: 0x0, symName: __ZNSt3__114__split_bufferIlRNS_9allocatorIlEEE17__destruct_at_endB7v160006EPlNS_17integral_constantIbLb0EEE, symObjAddr: 0x79A8, symBinAddr: 0x1000095BC, symSize: 0x80 }
  - { offsetInCU: 0x1FC65, offset: 0x1FC65, size: 0x8, addend: 0x0, symName: __ZNSt3__116allocator_traitsINS_9allocatorIlEEE7destroyB7v160006IlvvEEvRS2_PT_, symObjAddr: 0x7A28, symBinAddr: 0x10000963C, symSize: 0x28 }
  - { offsetInCU: 0x1FC9F, offset: 0x1FC9F, size: 0x8, addend: 0x0, symName: __ZNSt3__19allocatorIlE10deallocateB7v160006EPlm, symObjAddr: 0x7A84, symBinAddr: 0x100009698, symSize: 0x40 }
  - { offsetInCU: 0x1FCE1, offset: 0x1FCE1, size: 0x8, addend: 0x0, symName: __ZNKSt3__114__split_bufferIlRNS_9allocatorIlEEE9__end_capB7v160006Ev, symObjAddr: 0x7AC4, symBinAddr: 0x1000096D8, symSize: 0x28 }
  - { offsetInCU: 0x1FD07, offset: 0x1FD07, size: 0x8, addend: 0x0, symName: __ZNKSt3__117__compressed_pairIPlRNS_9allocatorIlEEE5firstB7v160006Ev, symObjAddr: 0x7AEC, symBinAddr: 0x100009700, symSize: 0x24 }
  - { offsetInCU: 0x1FD2D, offset: 0x1FD2D, size: 0x8, addend: 0x0, symName: __ZNSt3__16vectorIcNS_9allocatorIcEEE11__make_iterB7v160006EPc, symObjAddr: 0x7B10, symBinAddr: 0x100009724, symSize: 0x34 }
  - { offsetInCU: 0x1FD62, offset: 0x1FD62, size: 0x8, addend: 0x0, symName: __ZNSt3__111__wrap_iterIPcEC1B7v160006EPKvS1_, symObjAddr: 0x7B44, symBinAddr: 0x100009758, symSize: 0x3C }
  - { offsetInCU: 0x1FDA8, offset: 0x1FDA8, size: 0x8, addend: 0x0, symName: __ZNSt3__111__wrap_iterIPcEC2B7v160006EPKvS1_, symObjAddr: 0x7B80, symBinAddr: 0x100009794, symSize: 0x24 }
  - { offsetInCU: 0x1FDEE, offset: 0x1FDEE, size: 0x8, addend: 0x0, symName: __ZNKSt3__111__wrap_iterIPcE4baseB7v160006Ev, symObjAddr: 0x7BEC, symBinAddr: 0x100009800, symSize: 0x18 }
  - { offsetInCU: 0x1FE14, offset: 0x1FE14, size: 0x8, addend: 0x0, symName: __ZNSt3__16vectorIlNS_9allocatorIlEEE11__make_iterB7v160006EPl, symObjAddr: 0x7C04, symBinAddr: 0x100009818, symSize: 0x34 }
  - { offsetInCU: 0x1FE49, offset: 0x1FE49, size: 0x8, addend: 0x0, symName: __ZNSt3__111__wrap_iterIPlEC1B7v160006EPKvS1_, symObjAddr: 0x7C38, symBinAddr: 0x10000984C, symSize: 0x3C }
  - { offsetInCU: 0x1FE8F, offset: 0x1FE8F, size: 0x8, addend: 0x0, symName: __ZNSt3__111__wrap_iterIPlEC2B7v160006EPKvS1_, symObjAddr: 0x7C74, symBinAddr: 0x100009888, symSize: 0x24 }
  - { offsetInCU: 0x1FED5, offset: 0x1FED5, size: 0x8, addend: 0x0, symName: __ZNKSt3__111__wrap_iterIPlE4baseB7v160006Ev, symObjAddr: 0x7CE0, symBinAddr: 0x1000098F4, symSize: 0x18 }
  - { offsetInCU: 0x1FEFA, offset: 0x1FEFA, size: 0x8, addend: 0x0, symName: __Z3absB7v160006l, symObjAddr: 0x7CF8, symBinAddr: 0x10000990C, symSize: 0x28 }
  - { offsetInCU: 0x1FF27, offset: 0x1FF27, size: 0x8, addend: 0x0, symName: __ZNSt3__16vectorIlNS_9allocatorIlEEED2B7v160006Ev, symObjAddr: 0x7D20, symBinAddr: 0x100009934, symSize: 0x44 }
  - { offsetInCU: 0x1FF51, offset: 0x1FF51, size: 0x8, addend: 0x0, symName: __ZNSt3__16vectorIlNS_9allocatorIlEEE16__destroy_vectorC1ERS3_, symObjAddr: 0x7D64, symBinAddr: 0x100009978, symSize: 0x34 }
  - { offsetInCU: 0x1FF8A, offset: 0x1FF8A, size: 0x8, addend: 0x0, symName: __ZNSt3__16vectorIlNS_9allocatorIlEEE16__destroy_vectorclB7v160006Ev, symObjAddr: 0x7D98, symBinAddr: 0x1000099AC, symSize: 0x9C }
  - { offsetInCU: 0x1FFB0, offset: 0x1FFB0, size: 0x8, addend: 0x0, symName: __ZNSt3__16vectorIlNS_9allocatorIlEEE16__destroy_vectorC2ERS3_, symObjAddr: 0x7E34, symBinAddr: 0x100009A48, symSize: 0x20 }
  - { offsetInCU: 0x1FFE9, offset: 0x1FFE9, size: 0x8, addend: 0x0, symName: __ZNSt3__16vectorIlNS_9allocatorIlEEE7__clearB7v160006Ev, symObjAddr: 0x7E64, symBinAddr: 0x100009A78, symSize: 0x28 }
  - { offsetInCU: 0x2000F, offset: 0x2000F, size: 0x8, addend: 0x0, symName: __ZNSt3__16vectorIlNS_9allocatorIlEEE22__base_destruct_at_endB7v160006EPl, symObjAddr: 0x7E8C, symBinAddr: 0x100009AA0, symSize: 0x8C }
  - { offsetInCU: 0x20053, offset: 0x20053, size: 0x8, addend: 0x0, symName: __ZNSt3__16vectorINS0_IcNS_9allocatorIcEEEENS1_IS3_EEED2B7v160006Ev, symObjAddr: 0x7F18, symBinAddr: 0x100009B2C, symSize: 0x44 }
  - { offsetInCU: 0x2007D, offset: 0x2007D, size: 0x8, addend: 0x0, symName: __ZNSt3__16vectorINS0_IcNS_9allocatorIcEEEENS1_IS3_EEE16__destroy_vectorC1ERS5_, symObjAddr: 0x7F5C, symBinAddr: 0x100009B70, symSize: 0x34 }
  - { offsetInCU: 0x200B6, offset: 0x200B6, size: 0x8, addend: 0x0, symName: __ZNSt3__16vectorINS0_IcNS_9allocatorIcEEEENS1_IS3_EEE16__destroy_vectorclB7v160006Ev, symObjAddr: 0x7F90, symBinAddr: 0x100009BA4, symSize: 0x9C }
  - { offsetInCU: 0x200DC, offset: 0x200DC, size: 0x8, addend: 0x0, symName: __ZNSt3__16vectorINS0_IcNS_9allocatorIcEEEENS1_IS3_EEE16__destroy_vectorC2ERS5_, symObjAddr: 0x802C, symBinAddr: 0x100009C40, symSize: 0x20 }
  - { offsetInCU: 0x20115, offset: 0x20115, size: 0x8, addend: 0x0, symName: __ZNSt3__16vectorINS0_IcNS_9allocatorIcEEEENS1_IS3_EEE7__clearB7v160006Ev, symObjAddr: 0x805C, symBinAddr: 0x100009C70, symSize: 0x28 }
  - { offsetInCU: 0x2013B, offset: 0x2013B, size: 0x8, addend: 0x0, symName: __ZNSt3__16vectorINS0_IcNS_9allocatorIcEEEENS1_IS3_EEE22__base_destruct_at_endB7v160006EPS3_, symObjAddr: 0x8084, symBinAddr: 0x100009C98, symSize: 0x8C }
  - { offsetInCU: 0x2017F, offset: 0x2017F, size: 0x8, addend: 0x0, symName: __ZNSt3__114basic_ifstreamIcNS_11char_traitsIcEEED2Ev, symObjAddr: 0x8110, symBinAddr: 0x100009D24, symSize: 0x64 }
  - { offsetInCU: 0x201B9, offset: 0x201B9, size: 0x8, addend: 0x0, symName: __ZTv0_n24_NSt3__114basic_ifstreamIcNS_11char_traitsIcEEED1Ev, symObjAddr: 0x8174, symBinAddr: 0x100009D88, symSize: 0x28 }
  - { offsetInCU: 0x201D0, offset: 0x201D0, size: 0x8, addend: 0x0, symName: __ZNSt3__19basic_iosIcNS_11char_traitsIcEEEC2B7v160006Ev, symObjAddr: 0x819C, symBinAddr: 0x100009DB0, symSize: 0x44 }
  - { offsetInCU: 0x201FA, offset: 0x201FA, size: 0x8, addend: 0x0, symName: __ZNSt3__113basic_istreamIcNS_11char_traitsIcEEEC2B7v160006EPNS_15basic_streambufIcS2_EE, symObjAddr: 0x81E0, symBinAddr: 0x100009DF4, symSize: 0x64 }
  - { offsetInCU: 0x2023F, offset: 0x2023F, size: 0x8, addend: 0x0, symName: __ZNSt3__18ios_baseC2B7v160006Ev, symObjAddr: 0x8244, symBinAddr: 0x100009E58, symSize: 0x24 }
  - { offsetInCU: 0x20269, offset: 0x20269, size: 0x8, addend: 0x0, symName: __ZNSt3__19basic_iosIcNS_11char_traitsIcEEE4initB7v160006EPNS_15basic_streambufIcS2_EE, symObjAddr: 0x8268, symBinAddr: 0x100009E7C, symSize: 0x44 }
  - { offsetInCU: 0x202A0, offset: 0x202A0, size: 0x8, addend: 0x0, symName: __ZNSt3__111char_traitsIcE3eofEv, symObjAddr: 0x82AC, symBinAddr: 0x100009EC0, symSize: 0x8 }
  - { offsetInCU: 0x202B4, offset: 0x202B4, size: 0x8, addend: 0x0, symName: __ZNKSt3__19basic_iosIcNS_11char_traitsIcEEE4failB7v160006Ev, symObjAddr: 0x82B4, symBinAddr: 0x100009EC8, symSize: 0x28 }
  - { offsetInCU: 0x202DA, offset: 0x202DA, size: 0x8, addend: 0x0, symName: __ZNKSt3__18ios_base4failB7v160006Ev, symObjAddr: 0x82DC, symBinAddr: 0x100009EF0, symSize: 0x28 }
  - { offsetInCU: 0x20302, offset: 0x20302, size: 0x8, addend: 0x0, symName: __ZNKSt3__18ios_base3eofB7v160006Ev, symObjAddr: 0x8304, symBinAddr: 0x100009F18, symSize: 0x24 }
  - { offsetInCU: 0x2032A, offset: 0x2032A, size: 0x8, addend: 0x0, symName: __ZNSt3__114basic_iostreamIcNS_11char_traitsIcEEEC2B7v160006EPNS_15basic_streambufIcS2_EE, symObjAddr: 0x8328, symBinAddr: 0x100009F3C, symSize: 0xAC }
  - { offsetInCU: 0x20370, offset: 0x20370, size: 0x8, addend: 0x0, symName: __ZNSt3__115basic_stringbufIcNS_11char_traitsIcEENS_9allocatorIcEEEC1B7v160006Ej, symObjAddr: 0x83D4, symBinAddr: 0x100009FE8, symSize: 0x34 }
  - { offsetInCU: 0x203A8, offset: 0x203A8, size: 0x8, addend: 0x0, symName: __ZNSt3__113basic_ostreamIcNS_11char_traitsIcEEEC2B7v160006Ev, symObjAddr: 0x8408, symBinAddr: 0x10000A01C, symSize: 0x34 }
  - { offsetInCU: 0x203DF, offset: 0x203DF, size: 0x8, addend: 0x0, symName: __ZNSt3__115basic_stringbufIcNS_11char_traitsIcEENS_9allocatorIcEEEC2B7v160006Ej, symObjAddr: 0x843C, symBinAddr: 0x10000A050, symSize: 0x60 }
  - { offsetInCU: 0x20417, offset: 0x20417, size: 0x8, addend: 0x0, symName: __ZNKSt3__19basic_iosIcNS_11char_traitsIcEEE5widenB7v160006Ec, symObjAddr: 0x86D4, symBinAddr: 0x10000A2E8, symSize: 0x84 }
  - { offsetInCU: 0x2046F, offset: 0x2046F, size: 0x8, addend: 0x0, symName: __ZNKSt3__113basic_istreamIcNS_11char_traitsIcEEE6sentrycvbB7v160006Ev, symObjAddr: 0x8758, symBinAddr: 0x10000A36C, symSize: 0x1C }
  - { offsetInCU: 0x20495, offset: 0x20495, size: 0x8, addend: 0x0, symName: __ZNSt3__112basic_stringIcNS_11char_traitsIcEENS_9allocatorIcEEE5clearB7v160006Ev, symObjAddr: 0x8774, symBinAddr: 0x10000A388, symSize: 0x88 }
  - { offsetInCU: 0x204BD, offset: 0x204BD, size: 0x8, addend: 0x0, symName: __ZNKSt3__19basic_iosIcNS_11char_traitsIcEEE5rdbufB7v160006Ev, symObjAddr: 0x87FC, symBinAddr: 0x10000A410, symSize: 0x24 }
  - { offsetInCU: 0x204E5, offset: 0x204E5, size: 0x8, addend: 0x0, symName: __ZNSt3__115basic_streambufIcNS_11char_traitsIcEEE6sbumpcB7v160006Ev, symObjAddr: 0x8820, symBinAddr: 0x10000A434, symSize: 0x78 }
  - { offsetInCU: 0x2050B, offset: 0x2050B, size: 0x8, addend: 0x0, symName: __ZNSt3__111char_traitsIcE11eq_int_typeEii, symObjAddr: 0x8898, symBinAddr: 0x10000A4AC, symSize: 0x28 }
  - { offsetInCU: 0x2053C, offset: 0x2053C, size: 0x8, addend: 0x0, symName: __ZNSt3__111char_traitsIcE12to_char_typeEi, symObjAddr: 0x88C0, symBinAddr: 0x10000A4D4, symSize: 0x18 }
  - { offsetInCU: 0x2055F, offset: 0x2055F, size: 0x8, addend: 0x0, symName: __ZNSt3__111char_traitsIcE2eqEcc, symObjAddr: 0x88D8, symBinAddr: 0x10000A4EC, symSize: 0x28 }
  - { offsetInCU: 0x20590, offset: 0x20590, size: 0x8, addend: 0x0, symName: __ZNKSt3__112basic_stringIcNS_11char_traitsIcEENS_9allocatorIcEEE8max_sizeB7v160006Ev, symObjAddr: 0x8900, symBinAddr: 0x10000A514, symSize: 0xAC }
  - { offsetInCU: 0x205E2, offset: 0x205E2, size: 0x8, addend: 0x0, symName: __ZNSt3__18ios_base18__setstate_nothrowB7v160006Ej, symObjAddr: 0x89AC, symBinAddr: 0x10000A5C0, symSize: 0x64 }
  - { offsetInCU: 0x20617, offset: 0x20617, size: 0x8, addend: 0x0, symName: __ZNKSt3__19basic_iosIcNS_11char_traitsIcEEE10exceptionsB7v160006Ev, symObjAddr: 0x8A10, symBinAddr: 0x10000A624, symSize: 0x24 }
  - { offsetInCU: 0x2063D, offset: 0x2063D, size: 0x8, addend: 0x0, symName: __ZNSt3__19basic_iosIcNS_11char_traitsIcEEE8setstateB7v160006Ej, symObjAddr: 0x8A34, symBinAddr: 0x10000A648, symSize: 0x2C }
  - { offsetInCU: 0x20672, offset: 0x20672, size: 0x8, addend: 0x0, symName: __ZNSt3__111char_traitsIcE6assignERcRKc, symObjAddr: 0x8A70, symBinAddr: 0x10000A684, symSize: 0x24 }
  - { offsetInCU: 0x206A3, offset: 0x206A3, size: 0x8, addend: 0x0, symName: __ZNSt3__112basic_stringIcNS_11char_traitsIcEENS_9allocatorIcEEE18__get_long_pointerB7v160006Ev, symObjAddr: 0x8A94, symBinAddr: 0x10000A6A8, symSize: 0x28 }
  - { offsetInCU: 0x206C9, offset: 0x206C9, size: 0x8, addend: 0x0, symName: __ZNSt3__112basic_stringIcNS_11char_traitsIcEENS_9allocatorIcEEE15__set_long_sizeB7v160006Em, symObjAddr: 0x8ABC, symBinAddr: 0x10000A6D0, symSize: 0x38 }
  - { offsetInCU: 0x206FE, offset: 0x206FE, size: 0x8, addend: 0x0, symName: __ZNSt3__112basic_stringIcNS_11char_traitsIcEENS_9allocatorIcEEE19__get_short_pointerB7v160006Ev, symObjAddr: 0x8AF4, symBinAddr: 0x10000A708, symSize: 0x28 }
  - { offsetInCU: 0x20724, offset: 0x20724, size: 0x8, addend: 0x0, symName: __ZNSt3__112basic_stringIcNS_11char_traitsIcEENS_9allocatorIcEEE16__set_short_sizeB7v160006Em, symObjAddr: 0x8B1C, symBinAddr: 0x10000A730, symSize: 0x78 }
  - { offsetInCU: 0x20759, offset: 0x20759, size: 0x8, addend: 0x0, symName: __ZNSt3__114pointer_traitsIPcE10pointer_toB7v160006ERc, symObjAddr: 0x8B94, symBinAddr: 0x10000A7A8, symSize: 0x14 }
  - { offsetInCU: 0x2077C, offset: 0x2077C, size: 0x8, addend: 0x0, symName: __ZNKSt3__18ios_base5rdbufB7v160006Ev, symObjAddr: 0x8BA8, symBinAddr: 0x10000A7BC, symSize: 0x18 }
  - { offsetInCU: 0x207A2, offset: 0x207A2, size: 0x8, addend: 0x0, symName: __ZNSt3__111char_traitsIcE11to_int_typeEc, symObjAddr: 0x8BC0, symBinAddr: 0x10000A7D4, symSize: 0x14 }
  - { offsetInCU: 0x207C5, offset: 0x207C5, size: 0x8, addend: 0x0, symName: __ZNKSt3__112basic_stringIcNS_11char_traitsIcEENS_9allocatorIcEEE7__allocB7v160006Ev, symObjAddr: 0x8BD4, symBinAddr: 0x10000A7E8, symSize: 0x24 }
  - { offsetInCU: 0x207EB, offset: 0x207EB, size: 0x8, addend: 0x0, symName: __ZNKSt3__117__compressed_pairINS_12basic_stringIcNS_11char_traitsIcEENS_9allocatorIcEEE5__repES5_E6secondB7v160006Ev, symObjAddr: 0x8BF8, symBinAddr: 0x10000A80C, symSize: 0x24 }
  - { offsetInCU: 0x20811, offset: 0x20811, size: 0x8, addend: 0x0, symName: __ZNKSt3__18ios_base10exceptionsB7v160006Ev, symObjAddr: 0x8C1C, symBinAddr: 0x10000A830, symSize: 0x18 }
  - { offsetInCU: 0x20839, offset: 0x20839, size: 0x8, addend: 0x0, symName: __ZNSt3__18ios_base8setstateB7v160006Ej, symObjAddr: 0x8C34, symBinAddr: 0x10000A848, symSize: 0x34 }
  - { offsetInCU: 0x208A7, offset: 0x208A7, size: 0x8, addend: 0x0, symName: __ZNKSt3__15ctypeIcE5widenB7v160006Ec, symObjAddr: 0x8C94, symBinAddr: 0x10000A8A8, symSize: 0x38 }
  - { offsetInCU: 0x208DC, offset: 0x208DC, size: 0x8, addend: 0x0, symName: __ZNKSt3__112basic_stringIcNS_11char_traitsIcEENS_9allocatorIcEEE4dataB7v160006Ev, symObjAddr: 0x8EB8, symBinAddr: 0x10000AACC, symSize: 0x28 }
  - { offsetInCU: 0x20923, offset: 0x20923, size: 0x8, addend: 0x0, symName: __ZNKSt3__113basic_ostreamIcNS_11char_traitsIcEEE6sentrycvbB7v160006Ev, symObjAddr: 0x8EE0, symBinAddr: 0x10000AAF4, symSize: 0x1C }
  - { offsetInCU: 0x20949, offset: 0x20949, size: 0x8, addend: 0x0, symName: __ZNSt3__119ostreambuf_iteratorIcNS_11char_traitsIcEEEC1B7v160006ERNS_13basic_ostreamIcS2_EE, symObjAddr: 0x913C, symBinAddr: 0x10000AD50, symSize: 0x34 }
  - { offsetInCU: 0x20981, offset: 0x20981, size: 0x8, addend: 0x0, symName: __ZNKSt3__18ios_base5flagsB7v160006Ev, symObjAddr: 0x9170, symBinAddr: 0x10000AD84, symSize: 0x18 }
  - { offsetInCU: 0x209A9, offset: 0x209A9, size: 0x8, addend: 0x0, symName: __ZNKSt3__19basic_iosIcNS_11char_traitsIcEEE4fillB7v160006Ev, symObjAddr: 0x9188, symBinAddr: 0x10000AD9C, symSize: 0x64 }
  - { offsetInCU: 0x209D1, offset: 0x209D1, size: 0x8, addend: 0x0, symName: __ZNKSt3__119ostreambuf_iteratorIcNS_11char_traitsIcEEE6failedB7v160006Ev, symObjAddr: 0x91EC, symBinAddr: 0x10000AE00, symSize: 0x24 }
  - { offsetInCU: 0x209F7, offset: 0x209F7, size: 0x8, addend: 0x0, symName: __ZNKSt3__18ios_base5widthB7v160006Ev, symObjAddr: 0x9210, symBinAddr: 0x10000AE24, symSize: 0x18 }
  - { offsetInCU: 0x20A1F, offset: 0x20A1F, size: 0x8, addend: 0x0, symName: __ZNSt3__115basic_streambufIcNS_11char_traitsIcEEE5sputnB7v160006EPKcl, symObjAddr: 0x9228, symBinAddr: 0x10000AE3C, symSize: 0x3C }
  - { offsetInCU: 0x20A61, offset: 0x20A61, size: 0x8, addend: 0x0, symName: __ZNSt3__112basic_stringIcNS_11char_traitsIcEENS_9allocatorIcEEEC1B7v160006Emc, symObjAddr: 0x9264, symBinAddr: 0x10000AE78, symSize: 0x3C }
  - { offsetInCU: 0x20AA9, offset: 0x20AA9, size: 0x8, addend: 0x0, symName: __ZNSt3__112basic_stringIcNS_11char_traitsIcEENS_9allocatorIcEEE4dataB7v160006Ev, symObjAddr: 0x92A0, symBinAddr: 0x10000AEB4, symSize: 0x28 }
  - { offsetInCU: 0x20ACF, offset: 0x20ACF, size: 0x8, addend: 0x0, symName: __ZNSt3__18ios_base5widthB7v160006El, symObjAddr: 0x92C8, symBinAddr: 0x10000AEDC, symSize: 0x2C }
  - { offsetInCU: 0x20B15, offset: 0x20B15, size: 0x8, addend: 0x0, symName: __ZNSt3__112basic_stringIcNS_11char_traitsIcEENS_9allocatorIcEEEC2B7v160006Emc, symObjAddr: 0x92F4, symBinAddr: 0x10000AF08, symSize: 0x54 }
  - { offsetInCU: 0x20B5D, offset: 0x20B5D, size: 0x8, addend: 0x0, symName: __ZNSt3__112basic_stringIcNS_11char_traitsIcEENS_9allocatorIcEEE13__get_pointerB7v160006Ev, symObjAddr: 0x9348, symBinAddr: 0x10000AF5C, symSize: 0x54 }
  - { offsetInCU: 0x20B83, offset: 0x20B83, size: 0x8, addend: 0x0, symName: __ZNSt3__119ostreambuf_iteratorIcNS_11char_traitsIcEEEC2B7v160006ERNS_13basic_ostreamIcS2_EE, symObjAddr: 0x939C, symBinAddr: 0x10000AFB0, symSize: 0x54 }
  - { offsetInCU: 0x20BBB, offset: 0x20BBB, size: 0x8, addend: 0x0, symName: __ZNKSt3__112basic_stringIcNS_11char_traitsIcEENS_9allocatorIcEEE13__get_pointerB7v160006Ev, symObjAddr: 0x9404, symBinAddr: 0x10000B018, symSize: 0x54 }
  - { offsetInCU: 0x20BE1, offset: 0x20BE1, size: 0x8, addend: 0x0, symName: __ZNKSt3__112basic_stringIcNS_11char_traitsIcEENS_9allocatorIcEEE18__get_long_pointerB7v160006Ev, symObjAddr: 0x9458, symBinAddr: 0x10000B06C, symSize: 0x28 }
  - { offsetInCU: 0x20C07, offset: 0x20C07, size: 0x8, addend: 0x0, symName: __ZNKSt3__112basic_stringIcNS_11char_traitsIcEENS_9allocatorIcEEE19__get_short_pointerB7v160006Ev, symObjAddr: 0x9480, symBinAddr: 0x10000B094, symSize: 0x28 }
  - { offsetInCU: 0x20C2D, offset: 0x20C2D, size: 0x8, addend: 0x0, symName: __ZNSt3__114pointer_traitsIPKcE10pointer_toB7v160006ERS1_, symObjAddr: 0x94A8, symBinAddr: 0x10000B0BC, symSize: 0x14 }
  - { offsetInCU: 0x20C50, offset: 0x20C50, size: 0x8, addend: 0x0, symName: __ZNSt3__111char_traitsIcE6lengthEPKc, symObjAddr: 0x94BC, symBinAddr: 0x10000B0D0, symSize: 0x34 }
...
